(dp1
S'output'
p2
S"<type 'exceptions.NameError'> name 'comments' is not defined"
p3
sS'layer'
p4
S'C:\\Users\\omerf\\Desktop\\Web\\web2py\\applications\\paradise_hotel\\views\\default/room.html'
p5
sS'code'
p6
S'response.write(\'<!DOCTYPE html>\\n<html>\\n<head>\\n<meta charset="utf-8">\\n<title>\', escape=False)\nresponse.write(page_title)\nresponse.write(\'</title>\\n<!-- Stylesheets -->\\n<link href="/paradise_hotel/static/css/bootstrap.css" rel="stylesheet">\\n<link href="/paradise_hotel/static/css/revolution-slider.css" rel="stylesheet">\\n<link href="/paradise_hotel/static/css/style.css" rel="stylesheet">\\n<!-- Responsive -->\\n<meta http-equiv="X-UA-Compatible" content="IE=edge">\\n<meta name="viewport" content="width=device-width, initial-scale=1.0, maximum-scale=1.0, user-scalable=0">\\n<link href="/paradise_hotel/static/css/responsive.css" rel="stylesheet">\\n<!--[if lt IE 9]><script src="http://html5shim.googlecode.com/svn/trunk/html5.js"></script><![endif]-->\\n<!--[if lt IE 9]><script src="js/respond.js"></script><![endif]-->\\n</head>\\n\\n<body>\\n<div class="page-wrapper">\\n\\n\\n\\n    <!-- Main Header-->\\n    <header class="main-header">\\n\\n    \\t<!--Header-Upper-->\\n        <div class="header-upper">\\n        \\t<div class="auto-container">\\n            \\t<div class="clearfix">\\n\\n                \\t<div class="pull-left logo-outer">\\n                    \\t<div class="logo"><a href="#"><img src="/paradise_hotel/static/images/logo.jpg" alt="" title="Homestate"></a></div>\\n                    </div>\\n\\n                    <div class="pull-right upper-right clearfix">\\n\\n                        <!--Info Box-->\\n                        <div class="upper-column info-box">\\n                        \\t<div class="icon-box"><span class="flaticon-technology-2"></span></div>\\n                            <ul>\\n                            \\t<li><strong>320 4567 345</strong></li>\\n                                <li><a href="#">info@example.com</a></li>\\n                            </ul>\\n                        </div>\\n\\n                        <!--Info Box-->\\n                        <div class="upper-column info-box">\\n                        \\t<div class="icon-box"><span class="flaticon-location-2"></span></div>\\n                            <ul>\\n                            \\t<li><strong>Stadium Market</strong></li>\\n                                <li>Mirpur Road No  11</li>\\n                            </ul>\\n                        </div>\\n                        \', escape=False)\nif session.user:\n    response.write(\'\\n                        <!--Info Box-->\\n                            <div class="upper-column info-box">\\n                                <ul>\\n                                    <li><strong>Hello Hello \', escape=False)\n    response.write(A(session.user.Name\n    ))\n    response.write(\'.</strong></li>\\n                                    <li><div class="logout">\\n                                    <input type=\\\'button\\\' value=\\\'Logout\\\' onclick="parent.location=\\\'\', escape=False)\n    response.write(URL(\'user\', \'logout\'))\n    response.write(\'\\\'">\\n                                    </div></li>\\n                                </ul>\\n                            </div>\\n                            \', escape=False)\nelse:\n    response.write(\'\\n                        <!--Info Box-->\\n                            <div class="upper-column info-box">\\n                                <ul>\\n                                \\t<li><strong>Stadium Market</strong></li>\\n                                    <li>Mirpur Road No  11</li>\\n                                </ul>\\n                            </div>\\n\\n                    </div>\\n                    \', escape=False)\n    pass\nresponse.write(\'\\n                    \', escape=False)\npass\nresponse.write(\'\\n\\n                </div>\\n            </div>\\n        </div>\\n\\n        <!--Header-Lower-->\\n        <div class="header-lower">\\n        \\t<!--Background Layer-->\\n            <div class="bg-layer"></div>\\n\\n\\n        \\t<div class="auto-container">\\n            \\t<div class="nav-outer clearfix">\\n                    <!-- Main Menu -->\\n                    <nav class="main-menu">\\n                        <div class="navbar-header">\\n                            <!-- Toggle Button -->\\n                            <button type="button" class="navbar-toggle" data-toggle="collapse" data-target=".navbar-collapse">\\n                            <span class="icon-bar"></span>\\n                            <span class="icon-bar"></span>\\n                            <span class="icon-bar"></span>\\n                            </button>\\n                        </div>\\n\', escape=False)\nresponse.write(\'\\n\', escape=False)\nresponse.write(\'\\n<div class="navbar-collapse collapse clearfix">\\n    <ul class="navigation clearfix">\\n      \', escape=False)\nmenu = [ ("index", "Home Page"),("rooms", "Rooms"),("gallery", "Gallery"),("contact", "Contact "),\n("about_us","About Us")  ]\nfor (path, text) in menu:\n    if request.controller == "default" and request.function== path:\n        response.write(LI(A(text, _href=URL(\'default\',path), _class="active" )))\n    else:\n        response.write(LI(A(text, _href=URL(\'default\',path) )))\n        response.write(\'\\n           \', escape=False)\n        pass\n    response.write(\'\\n       \', escape=False)\n    pass\nresponse.write(\'\\n\\n         <li class="dropdown"><a href="#">User</a>\\n           <ul>\\n             <li>\\n       \', escape=False)\nmenu2 = [ ("login", "Login Screen"),("register","Register") ]\nfor (path, text) in menu2:\n    if request.controller == "user" and request.function== path:\n        response.write(LI(A(text, _href=URL(\'user\',path), _class="active" )))\n    else:\n        response.write(LI(A(text, _href=URL(\'user\',path) )))\n        response.write(\'\\n            \', escape=False)\n        pass\n    response.write(\'\\n        \', escape=False)\n    pass\nresponse.write(\'\\n      </li>\\n    </ul>\\n</div>\\n</nav><!-- Main Menu End-->\\n\\n<div class="btn-outer"><a href="contact.html" class="theme-btn visit-btn">Schedule Visit</a></div>\\n\\n</div>\\n</div>\\n</div>\\n\\n\\n<!--Sticky Header-->\\n<div class="sticky-header">\\n<div class="auto-container clearfix">\\n<!--Logo-->\\n<div class="logo pull-left">\\n<a href="index.html" class="img-responsive"><img src="/paradise_hotel/static/images/logo-small.png" alt="Homestate"></a>\\n</div>\\n\\n<!--Right Col-->\\n<div class="right-col pull-right">\\n<!-- Main Menu -->\\n<nav class="main-menu">\\n<div class="navbar-header">\\n    <!-- Toggle Button -->\\n    <button type="button" class="navbar-toggle" data-toggle="collapse" data-target=".navbar-collapse">\\n    <span class="icon-bar"></span>\\n    <span class="icon-bar"></span>\\n    <span class="icon-bar"></span>\\n    </button>\\n</div>\\n\\n<div class="navbar-collapse collapse clearfix">\\n  <ul class="navigation clearfix">\\n    \', escape=False)\nmenu = [ ("index", "Home Page"),("rooms", "Rooms"),("gallery", "Gallery"),("contact", "Contact "),\n("about_us", "About Us"),("login","Login Page") ]\nfor (path, text) in menu:\n    if request.controller == "default" and request.function== path:\n        response.write(LI(A(text, _href=URL(\'default\',path), _class="active" )))\n    else:\n        response.write(LI(A(text, _href=URL(\'default\',path) )))\n        response.write(\'\\n         \', escape=False)\n        pass\n    response.write(\'\\n     \', escape=False)\n    pass\nresponse.write(\'\\n  </ul>\\n\\n</div>\\n</nav><!-- Main Menu End-->\\n</div>\\n\\n</div>\\n</div><!--End Bounce In Header-->\\n\\n</header>\\n<!--End Main Header -->\\n\', escape=False)\nresponse.write(\'\\n<section class="property-dimensions" style="background-image:url(images/background/image-1.jpg);">\\n  <div class="auto-container">\\n      <!--Sec Title-->\\n      <div class="sec-title centered">\\n          <h2><strong>\', escape=False)\nresponse.write(data["name"])\nresponse.write(\' (\', escape=False)\nresponse.write(data["price"])\nresponse.write(\')</h2>\\n            <h3>\', escape=False)\nresponse.write(data["room_type"])\nresponse.write(\'</h3>\\n            <div class="desc-text">\', escape=False)\nresponse.write(data["specs"])\nresponse.write(\'</div>\\n            \', escape=False)\nif session.user:\n    response.write(\'\\n            <div class="default-form">\\n                    <div class="row clearfix">\\n                        <div class="col-md-18 col-sm-18 co-xs-18 form-group">\\n                            \', escape=False)\n    response.write(form)\n    response.write(\'\\n                              </div>\\n                            </form>\\n\\n                            </div>\\n                            \', escape=False)\n    pass\nresponse.write(\'\\n                            <div class="desc-text">\', escape=False)\nresponse.write(comments)\nresponse.write(\'</div>\\n\\n        </div>\\n        </div>\\n\\n        </div>\\n\\n</section>\\n\\n\', escape=False)\nresponse.write(\'<!--Main Footer-->\\n<footer class="main-footer">\\n    <!--Footer Bottom-->\\n  <div class="footer-bottom">\\n            <!--Copyright-->\\n            <div class="copyright text-center social-links">\\n              <a href="#" class="facebook img-circle"><span class="fa fa-facebook-f"></span></a>\\n              <a href="#" class="twitter img-circle"><span class="fa fa-twitter"></span></a>\\n              <a href="#" class="google-plus img-circle"><span class="fa fa-google-plus"></span></a>\\n              <a href="#" class="linkedin img-circle"><span class="fa fa-pinterest-p"></span></a>\\n              <a href="#" class="linkedin img-circle"><span class="fa fa-instagram"></span></a></div>\\n            <div class="copyright text-center">Paradise Hotel 2016 &copy; </div>\\n    </div>\\n\\n</footer>\\n\\n\\n</div>\\n<!--End pagewrapper-->\\n\\n<!--Scroll to top-->\\n<div class="scroll-to-top scroll-to-target" data-target=".main-header"><span class="icon flaticon-building"></span></div>\\n\\n\\n<script src="/paradise_hotel/static/js/jquery.js"></script>\\n<script src="/paradise_hotel/static/js/bootstrap.min.js"></script>\\n<script src="/paradise_hotel/static/js/revolution.min.js"></script>\\n<script src="/paradise_hotel/static/js/jquery.fancybox.pack.js"></script>\\n<script src="/paradise_hotel/static/js/isotope.js"></script>\\n<script src="/paradise_hotel/static/js/owl.js"></script>\\n<!--Locations Map JS-->\\n<script src="http://maps.google.com/maps/api/js?v=3"></script>\\n<script src="/paradise_hotel/static/js/jquery.gmap.js"></script>\\n<script src="/paradise_hotel/static/js/map-script.js"></script>\\n<!--Locations Map End-->\\n<script src="/paradise_hotel/static/js/wow.js"></script>\\n<script src="/paradise_hotel/static/js/script.js"></script>\\n</body>\\n</html>\\n\', escape=False)\nresponse.write(\'\\n\', escape=False)\npass\nresponse.write(\'\\n\', escape=False)'
p7
sS'snapshot'
p8
(dp9
S'exception'
p10
(dp11
S'__hash__'
p12
S"<method-wrapper '__hash__' of exceptions.NameError object>"
p13
sS'__setattr__'
p14
S"<method-wrapper '__setattr__' of exceptions.NameError object>"
p15
sS'__reduce_ex__'
p16
S'<built-in method __reduce_ex__ of exceptions.NameError object>'
p17
sS'__getslice__'
p18
S"<method-wrapper '__getslice__' of exceptions.NameError object>"
p19
sS'__getitem__'
p20
S"<method-wrapper '__getitem__' of exceptions.NameError object>"
p21
sS'__setstate__'
p22
S'<built-in method __setstate__ of exceptions.NameError object>'
p23
sS'__reduce__'
p24
S'<built-in method __reduce__ of exceptions.NameError object>'
p25
sS'__str__'
p26
S"<method-wrapper '__str__' of exceptions.NameError object>"
p27
sS'__format__'
p28
S'<built-in method __format__ of exceptions.NameError object>'
p29
sS'__getattribute__'
p30
S"<method-wrapper '__getattribute__' of exceptions.NameError object>"
p31
sS'__class__'
p32
S"<type 'exceptions.NameError'>"
p33
sS'__unicode__'
p34
S'<built-in method __unicode__ of exceptions.NameError object>'
p35
sS'__delattr__'
p36
S"<method-wrapper '__delattr__' of exceptions.NameError object>"
p37
sS'__subclasshook__'
p38
S'<built-in method __subclasshook__ of type object>'
p39
sS'__repr__'
p40
S"<method-wrapper '__repr__' of exceptions.NameError object>"
p41
sS'args'
p42
S'("name \'comments\' is not defined",)'
p43
sS'__dict__'
p44
S'{}'
p45
sS'__sizeof__'
p46
S'<built-in method __sizeof__ of exceptions.NameError object>'
p47
sS'__doc__'
p48
S"'Name not found globally.'"
p49
sS'__init__'
p50
S"<method-wrapper '__init__' of exceptions.NameError object>"
p51
sS'__new__'
p52
S'<built-in method __new__ of type object>'
p53
ssS'evalue'
p54
S"name 'comments' is not defined"
p55
sS'request'
p56
cgluon.html
XML_unpickle
p57
(S's\xf8s\x00\x00<div><table><tr><td style="font-weight:bold;vertical-align:top;">ajax</td><td style="vertical-align:top;">:</td><td><div>False</div></td></tr><tr><td style="font-weight:bold;vertical-align:top;">application</td><td style="vertical-align:top;">:</td><td><div>paradise_hotel</div></td></tr><tr><td style="font-weight:bold;vertical-align:top;">args</td><td style="vertical-align:top;">:</td><td><div><table><tr><td><div>2</div></td></tr></table></div></td></tr><tr><td style="font-weight:bold;vertical-align:top;">cid</td><td style="vertical-align:top;">:</td><td><div>None</div></td></tr><tr><td style="font-weight:bold;vertical-align:top;">client</td><td style="vertical-align:top;">:</td><td><div>127.0.0.1</div></td></tr><tr><td style="font-weight:bold;vertical-align:top;">controller</td><td style="vertical-align:top;">:</td><td><div>default</div></td></tr><tr><td style="font-weight:bold;vertical-align:top;">cookies</td><td style="vertical-align:top;">:</td><td><div><table><tr><td style="font-weight:bold;vertical-align:top;">gsScrollPos</td><td style="vertical-align:top;">:</td><td><div><table><tr><td style="font-weight:bold;vertical-align:top;">comment</td><td style="vertical-align:top;">:</td><td><div></div></td></tr><tr><td style="font-weight:bold;vertical-align:top;">domain</td><td style="vertical-align:top;">:</td><td><div></div></td></tr><tr><td style="font-weight:bold;vertical-align:top;">expires</td><td style="vertical-align:top;">:</td><td><div></div></td></tr><tr><td style="font-weight:bold;vertical-align:top;">httponly</td><td style="vertical-align:top;">:</td><td><div></div></td></tr><tr><td style="font-weight:bold;vertical-align:top;">max-age</td><td style="vertical-align:top;">:</td><td><div></div></td></tr><tr><td style="font-weight:bold;vertical-align:top;">path</td><td style="vertical-align:top;">:</td><td><div></div></td></tr><tr><td style="font-weight:bold;vertical-align:top;">secure</td><td style="vertical-align:top;">:</td><td><div></div></td></tr><tr><td style="font-weight:bold;vertical-align:top;">version</td><td style="vertical-align:top;">:</td><td><div></div></td></tr></table></div></td></tr><tr><td style="font-weight:bold;vertical-align:top;">session_id_admin</td><td style="vertical-align:top;">:</td><td><div>127.0.0.1-cf99ead7-861e-4623-8b75-d58fccc8efad<table><tr><td style="font-weight:bold;vertical-align:top;">comment</td><td style="vertical-align:top;">:</td><td><div></div></td></tr><tr><td style="font-weight:bold;vertical-align:top;">domain</td><td style="vertical-align:top;">:</td><td><div></div></td></tr><tr><td style="font-weight:bold;vertical-align:top;">expires</td><td style="vertical-align:top;">:</td><td><div></div></td></tr><tr><td style="font-weight:bold;vertical-align:top;">httponly</td><td style="vertical-align:top;">:</td><td><div></div></td></tr><tr><td style="font-weight:bold;vertical-align:top;">max-age</td><td style="vertical-align:top;">:</td><td><div></div></td></tr><tr><td style="font-weight:bold;vertical-align:top;">path</td><td style="vertical-align:top;">:</td><td><div></div></td></tr><tr><td style="font-weight:bold;vertical-align:top;">secure</td><td style="vertical-align:top;">:</td><td><div></div></td></tr><tr><td style="font-weight:bold;vertical-align:top;">version</td><td style="vertical-align:top;">:</td><td><div></div></td></tr></table></div></td></tr><tr><td style="font-weight:bold;vertical-align:top;">session_id_paradise_hotel</td><td style="vertical-align:top;">:</td><td><div>127.0.0.1-8d5a3fd5-2747-47c7-a1b9-a462dec62366<table><tr><td style="font-weight:bold;vertical-align:top;">comment</td><td style="vertical-align:top;">:</td><td><div></div></td></tr><tr><td style="font-weight:bold;vertical-align:top;">domain</td><td style="vertical-align:top;">:</td><td><div></div></td></tr><tr><td style="font-weight:bold;vertical-align:top;">expires</td><td style="vertical-align:top;">:</td><td><div></div></td></tr><tr><td style="font-weight:bold;vertical-align:top;">httponly</td><td style="vertical-align:top;">:</td><td><div></div></td></tr><tr><td style="font-weight:bold;vertical-align:top;">max-age</td><td style="vertical-align:top;">:</td><td><div></div></td></tr><tr><td style="font-weight:bold;vertical-align:top;">path</td><td style="vertical-align:top;">:</td><td><div></div></td></tr><tr><td style="font-weight:bold;vertical-align:top;">secure</td><td style="vertical-align:top;">:</td><td><div></div></td></tr><tr><td style="font-weight:bold;vertical-align:top;">version</td><td style="vertical-align:top;">:</td><td><div></div></td></tr></table></div></td></tr><tr><td style="font-weight:bold;vertical-align:top;">session_id_web13</td><td style="vertical-align:top;">:</td><td><div>127.0.0.1-76f180d9-dc55-4a1b-a30d-41646299d7bd<table><tr><td style="font-weight:bold;vertical-align:top;">comment</td><td style="vertical-align:top;">:</td><td><div></div></td></tr><tr><td style="font-weight:bold;vertical-align:top;">domain</td><td style="vertical-align:top;">:</td><td><div></div></td></tr><tr><td style="font-weight:bold;vertical-align:top;">expires</td><td style="vertical-align:top;">:</td><td><div></div></td></tr><tr><td style="font-weight:bold;vertical-align:top;">httponly</td><td style="vertical-align:top;">:</td><td><div></div></td></tr><tr><td style="font-weight:bold;vertical-align:top;">max-age</td><td style="vertical-align:top;">:</td><td><div></div></td></tr><tr><td style="font-weight:bold;vertical-align:top;">path</td><td style="vertical-align:top;">:</td><td><div></div></td></tr><tr><td style="font-weight:bold;vertical-align:top;">secure</td><td style="vertical-align:top;">:</td><td><div></div></td></tr><tr><td style="font-weight:bold;vertical-align:top;">version</td><td style="vertical-align:top;">:</td><td><div></div></td></tr></table></div></td></tr><tr><td style="font-weight:bold;vertical-align:top;">session_id_welcome</td><td style="vertical-align:top;">:</td><td><div>127.0.0.1-cef9dcd3-acb1-4d86-9bd4-23ca0e075a7c<table><tr><td style="font-weight:bold;vertical-align:top;">comment</td><td style="vertical-align:top;">:</td><td><div></div></td></tr><tr><td style="font-weight:bold;vertical-align:top;">domain</td><td style="vertical-align:top;">:</td><td><div></div></td></tr><tr><td style="font-weight:bold;vertical-align:top;">expires</td><td style="vertical-align:top;">:</td><td><div></div></td></tr><tr><td style="font-weight:bold;vertical-align:top;">httponly</td><td style="vertical-align:top;">:</td><td><div></div></td></tr><tr><td style="font-weight:bold;vertical-align:top;">max-age</td><td style="vertical-align:top;">:</td><td><div></div></td></tr><tr><td style="font-weight:bold;vertical-align:top;">path</td><td style="vertical-align:top;">:</td><td><div></div></td></tr><tr><td style="font-weight:bold;vertical-align:top;">secure</td><td style="vertical-align:top;">:</td><td><div></div></td></tr><tr><td style="font-weight:bold;vertical-align:top;">version</td><td style="vertical-align:top;">:</td><td><div></div></td></tr></table></div></td></tr></table></div></td></tr><tr><td style="font-weight:bold;vertical-align:top;">env</td><td style="vertical-align:top;">:</td><td><div><table><tr><td style="font-weight:bold;vertical-align:top;">CONTENT_LENGTH</td><td style="vertical-align:top;">:</td><td><div>467</div></td></tr><tr><td style="font-weight:bold;vertical-align:top;">CONTENT_TYPE</td><td style="vertical-align:top;">:</td><td><div>multipart/form-data; boundary=----WebKitFormBoundaryHttcIL2SPbwlvDIi</div></td></tr><tr><td style="font-weight:bold;vertical-align:top;">HTTP_ACCEPT</td><td style="vertical-align:top;">:</td><td><div>text/html,application/xhtml+xml,application/xml;q=0.9,image/webp,*/*;q=0.8</div></td></tr><tr><td style="font-weight:bold;vertical-align:top;">HTTP_ACCEPT_ENCODING</td><td style="vertical-align:top;">:</td><td><div>gzip, deflate, br</div></td></tr><tr><td style="font-weight:bold;vertical-align:top;">HTTP_ACCEPT_LANGUAGE</td><td style="vertical-align:top;">:</td><td><div>tr-TR,tr;q=0.8,en-US;q=0.6,en;q=0.4</div></td></tr><tr><td style="font-weight:bold;vertical-align:top;">HTTP_CACHE_CONTROL</td><td style="vertical-align:top;">:</td><td><div>max-age=0</div></td></tr><tr><td style="font-weight:bold;vertical-align:top;">HTTP_CONNECTION</td><td style="vertical-align:top;">:</td><td><div>keep-alive</div></td></tr><tr><td style="font-weight:bold;vertical-align:top;">HTTP_CONTENT_LENGTH</td><td style="vertical-align:top;">:</td><td><div>467</div></td></tr><tr><td style="font-weight:bold;vertical-align:top;">HTTP_CONTENT_TYPE</td><td style="vertical-align:top;">:</td><td><div>multipart/form-data; boundary=----WebKitFormBoundaryHttcIL2SPbwlvDIi</div></td></tr><tr><td style="font-weight:bold;vertical-align:top;">HTTP_COOKIE</td><td style="vertical-align:top;">:</td><td><div>gsScrollPos=; session_id_web13=127.0.0.1-76f180d9-dc55-4a1b-a30d-41646299d7bd; session_id_welcome=127.0.0.1-cef9dcd3-acb1-4d86-9bd4-23ca0e075a7c; session_id_paradise_hotel=127.0.0.1-8d5a3fd5-2747-47c7-a1b9-a462dec62366; session_id_admin=127.0.0.1-cf99ead7-861e-4623-8b75-d58fccc8efad</div></td></tr><tr><td style="font-weight:bold;vertical-align:top;">HTTP_DNT</td><td style="vertical-align:top;">:</td><td><div>1</div></td></tr><tr><td style="font-weight:bold;vertical-align:top;">HTTP_HOST</td><td style="vertical-align:top;">:</td><td><div>127.0.0.1:8000</div></td></tr><tr><td style="font-weight:bold;vertical-align:top;">HTTP_ORIGIN</td><td style="vertical-align:top;">:</td><td><div>http://127.0.0.1:8000</div></td></tr><tr><td style="font-weight:bold;vertical-align:top;">HTTP_REFERER</td><td style="vertical-align:top;">:</td><td><div>http://127.0.0.1:8000/paradise_hotel/default/room/2</div></td></tr><tr><td style="font-weight:bold;vertical-align:top;">HTTP_UPGRADE_INSECURE_REQUESTS</td><td style="vertical-align:top;">:</td><td><div>1</div></td></tr><tr><td style="font-weight:bold;vertical-align:top;">HTTP_USER_AGENT</td><td style="vertical-align:top;">:</td><td><div>Mozilla/5.0 (Windows NT 10.0; Win64; x64) AppleWebKit/537.36 (KHTML, like Gecko) Chrome/55.0.2883.87 Safari/537.36</div></td></tr><tr><td style="font-weight:bold;vertical-align:top;">PATH_INFO</td><td style="vertical-align:top;">:</td><td><div>/paradise_hotel/default/room/2</div></td></tr><tr><td style="font-weight:bold;vertical-align:top;">QUERY_STRING</td><td style="vertical-align:top;">:</td><td><div></div></td></tr><tr><td style="font-weight:bold;vertical-align:top;">REMOTE_ADDR</td><td style="vertical-align:top;">:</td><td><div>127.0.0.1</div></td></tr><tr><td style="font-weight:bold;vertical-align:top;">REMOTE_PORT</td><td style="vertical-align:top;">:</td><td><div>62235</div></td></tr><tr><td style="font-weight:bold;vertical-align:top;">REQUEST_METHOD</td><td style="vertical-align:top;">:</td><td><div>POST</div></td></tr><tr><td style="font-weight:bold;vertical-align:top;">SCRIPT_NAME</td><td style="vertical-align:top;">:</td><td><div></div></td></tr><tr><td style="font-weight:bold;vertical-align:top;">SERVER_NAME</td><td style="vertical-align:top;">:</td><td><div>OMERF-PC</div></td></tr><tr><td style="font-weight:bold;vertical-align:top;">SERVER_PORT</td><td style="vertical-align:top;">:</td><td><div>8000</div></td></tr><tr><td style="font-weight:bold;vertical-align:top;">SERVER_PROTOCOL</td><td style="vertical-align:top;">:</td><td><div>HTTP/1.1</div></td></tr><tr><td style="font-weight:bold;vertical-align:top;">SERVER_SOFTWARE</td><td style="vertical-align:top;">:</td><td><div>Rocket 1.2.6</div></td></tr><tr><td style="font-weight:bold;vertical-align:top;">app_folders</td><td style="vertical-align:top;">:</td><td><div>set([&#x27;C:\\\\Users\\\\omerf\\\\Desktop\\\\Web\\\\web2py\\\\applications\\\\welcome\\\\&#x27;, &#x27;C:\\\\Users\\\\omerf\\\\Desktop\\\\Web\\\\web2py\\\\applications\\\\paradise_hotel\\\\&#x27;, &#x27;C:\\\\Users\\\\omerf\\\\Desktop\\\\Web\\\\web2py\\\\applications\\\\week12\\\\&#x27;, &#x27;C:\\\\Users\\\\omerf\\\\Desktop\\\\Web\\\\web2py\\\\applications\\\\admin\\\\&#x27;, &#x27;C:\\\\Users\\\\omerf\\\\Desktop\\\\Web\\\\web2py\\\\applications\\\\web13\\\\&#x27;])</div></td></tr><tr><td style="font-weight:bold;vertical-align:top;">applications_parent</td><td style="vertical-align:top;">:</td><td><div>C:\\Users\\omerf\\Desktop\\Web\\web2py</div></td></tr><tr><td style="font-weight:bold;vertical-align:top;">cmd_args</td><td style="vertical-align:top;">:</td><td><div><table></table></div></td></tr><tr><td style="font-weight:bold;vertical-align:top;">cmd_options</td><td style="vertical-align:top;">:</td><td><div>&lt;Values at 0x2d92cd8: {&#x27;verbose&#x27;: False, &#x27;ip&#x27;: &#x27;127.0.0.1&#x27;, &#x27;debuglevel&#x27;: 30, &#x27;with_scheduler&#x27;: False, &#x27;shutdown_timeout&#x27;: 5, &#x27;taskbar&#x27;: False, &#x27;with_coverage&#x27;: False, &#x27;pid_filename&#x27;: &#x27;httpserver.pid&#x27;, &#x27;maxthreads&#x27;: None, &#x27;softcron&#x27;: False, &#x27;server_name&#x27;: &#x27;OMERF-PC&#x27;, &#x27;bpython&#x27;: False, &#x27;nogui&#x27;: False, &#x27;port&#x27;: 8000, &#x27;print_errors&#x27;: False, &#x27;extcron&#x27;: False, &#x27;runcron&#x27;: False, &#x27;run_system_tests&#x27;: False, &#x27;test&#x27;: None, &#x27;folder&#x27;: &#x27;C:\\\\Users\\\\omerf\\\\Desktop\\\\Web\\\\web2py&#x27;, &#x27;config&#x27;: &#x27;&#x27;, &#x27;minthreads&#x27;: None, &#x27;shell&#x27;: None, &#x27;run&#x27;: &#x27;&#x27;, &#x27;log_filename&#x27;: &#x27;httpserver.log&#x27;, &#x27;profiler_dir&#x27;: None, &#x27;args&#x27;: [&#x27;&#x27;], &#x27;socket_timeout&#x27;: 5, &#x27;ssl_ca_certificate&#x27;: None, &#x27;scheduler&#x27;: None, &#x27;interfaces&#x27;: None, &#x27;ssl_private_key&#x27;: &#x27;&#x27;, &#x27;gae&#x27;: None, &#x27;password&#x27;: &#x27;******&#x27;, &#x27;request_queue_size&#x27;: 5, &#x27;ssl_certificate&#x27;: &#x27;&#x27;, &#x27;cronjob&#x27;: False, &#x27;numthreads&#x27;: None, &#x27;quiet&#x27;: False, &#x27;import_models&#x27;: False, &#x27;timeout&#x27;: 10, &#x27;plain&#x27;: False, &#x27;nobanner&#x27;: False}&gt;</div></td></tr><tr><td style="font-weight:bold;vertical-align:top;">content_length</td><td style="vertical-align:top;">:</td><td><div>467</div></td></tr><tr><td style="font-weight:bold;vertical-align:top;">content_type</td><td style="vertical-align:top;">:</td><td><div>multipart/form-data; boundary=----WebKitFormBoundaryHttcIL2SPbwlvDIi</div></td></tr><tr><td style="font-weight:bold;vertical-align:top;">db_sessions</td><td style="vertical-align:top;">:</td><td><div>set([])</div></td></tr><tr><td style="font-weight:bold;vertical-align:top;">debugging</td><td style="vertical-align:top;">:</td><td><div>True</div></td></tr><tr><td style="font-weight:bold;vertical-align:top;">gluon_parent</td><td style="vertical-align:top;">:</td><td><div>C:\\Users\\omerf\\Desktop\\Web\\web2py</div></td></tr><tr><td style="font-weight:bold;vertical-align:top;">http_accept</td><td style="vertical-align:top;">:</td><td><div>text/html,application/xhtml+xml,application/xml;q=0.9,image/webp,*/*;q=0.8</div></td></tr><tr><td style="font-weight:bold;vertical-align:top;">http_accept_encoding</td><td style="vertical-align:top;">:</td><td><div>gzip, deflate, br</div></td></tr><tr><td style="font-weight:bold;vertical-align:top;">http_accept_language</td><td style="vertical-align:top;">:</td><td><div>tr-TR,tr;q=0.8,en-US;q=0.6,en;q=0.4</div></td></tr><tr><td style="font-weight:bold;vertical-align:top;">http_cache_control</td><td style="vertical-align:top;">:</td><td><div>max-age=0</div></td></tr><tr><td style="font-weight:bold;vertical-align:top;">http_connection</td><td style="vertical-align:top;">:</td><td><div>keep-alive</div></td></tr><tr><td style="font-weight:bold;vertical-align:top;">http_content_length</td><td style="vertical-align:top;">:</td><td><div>467</div></td></tr><tr><td style="font-weight:bold;vertical-align:top;">http_content_type</td><td style="vertical-align:top;">:</td><td><div>multipart/form-data; boundary=----WebKitFormBoundaryHttcIL2SPbwlvDIi</div></td></tr><tr><td style="font-weight:bold;vertical-align:top;">http_cookie</td><td style="vertical-align:top;">:</td><td><div>gsScrollPos=; session_id_web13=127.0.0.1-76f180d9-dc55-4a1b-a30d-41646299d7bd; session_id_welcome=127.0.0.1-cef9dcd3-acb1-4d86-9bd4-23ca0e075a7c; session_id_paradise_hotel=127.0.0.1-8d5a3fd5-2747-47c7-a1b9-a462dec62366; session_id_admin=127.0.0.1-cf99ead7-861e-4623-8b75-d58fccc8efad</div></td></tr><tr><td style="font-weight:bold;vertical-align:top;">http_dnt</td><td style="vertical-align:top;">:</td><td><div>1</div></td></tr><tr><td style="font-weight:bold;vertical-align:top;">http_host</td><td style="vertical-align:top;">:</td><td><div>127.0.0.1:8000</div></td></tr><tr><td style="font-weight:bold;vertical-align:top;">http_origin</td><td style="vertical-align:top;">:</td><td><div>http://127.0.0.1:8000</div></td></tr><tr><td style="font-weight:bold;vertical-align:top;">http_referer</td><td style="vertical-align:top;">:</td><td><div>http://127.0.0.1:8000/paradise_hotel/default/room/2</div></td></tr><tr><td style="font-weight:bold;vertical-align:top;">http_upgrade_insecure_requests</td><td style="vertical-align:top;">:</td><td><div>1</div></td></tr><tr><td style="font-weight:bold;vertical-align:top;">http_user_agent</td><td style="vertical-align:top;">:</td><td><div>Mozilla/5.0 (Windows NT 10.0; Win64; x64) AppleWebKit/537.36 (KHTML, like Gecko) Chrome/55.0.2883.87 Safari/537.36</div></td></tr><tr><td style="font-weight:bold;vertical-align:top;">is_jython</td><td style="vertical-align:top;">:</td><td><div>False</div></td></tr><tr><td style="font-weight:bold;vertical-align:top;">is_pypy</td><td style="vertical-align:top;">:</td><td><div>False</div></td></tr><tr><td style="font-weight:bold;vertical-align:top;">is_source</td><td style="vertical-align:top;">:</td><td><div>False</div></td></tr><tr><td style="font-weight:bold;vertical-align:top;">local_hosts</td><td style="vertical-align:top;">:</td><td><div><table><tr><td><div>169.254.217.175</div></td></tr><tr><td><div>fe80::587f:ee15:38b8:54c2%15</div></td></tr><tr><td><div>fe80::2182:71e8:e91c:decf%17</div></td></tr><tr><td><div>192.168.1.101</div></td></tr><tr><td><div>::ffff:127.0.0.1</div></td></tr><tr><td><div>::1</div></td></tr><tr><td><div>192.168.200.1</div></td></tr><tr><td><div>192.168.204.2</div></td></tr><tr><td><div>fe80::8026:209c:c3bd:c7c7%14</div></td></tr><tr><td><div>169.254.177.77</div></td></tr><tr><td><div>fe80::5511:d8ff:d5f:b14d%7</div></td></tr><tr><td><div>fe80::71fc:18ad:f78a:d9af%16</div></td></tr><tr><td><div>127.0.0.1</div></td></tr><tr><td><div>OMERF-PC</div></td></tr></table></div></td></tr><tr><td style="font-weight:bold;vertical-align:top;">path_info</td><td style="vertical-align:top;">:</td><td><div>/paradise_hotel/default/room/2</div></td></tr><tr><td style="font-weight:bold;vertical-align:top;">query_string</td><td style="vertical-align:top;">:</td><td><div></div></td></tr><tr><td style="font-weight:bold;vertical-align:top;">remote_addr</td><td style="vertical-align:top;">:</td><td><div>127.0.0.1</div></td></tr><tr><td style="font-weight:bold;vertical-align:top;">remote_port</td><td style="vertical-align:top;">:</td><td><div>62235</div></td></tr><tr><td style="font-weight:bold;vertical-align:top;">request_method</td><td style="vertical-align:top;">:</td><td><div>POST</div></td></tr><tr><td style="font-weight:bold;vertical-align:top;">request_uri</td><td style="vertical-align:top;">:</td><td><div>/paradise_hotel/default/room/2</div></td></tr><tr><td style="font-weight:bold;vertical-align:top;">script_name</td><td style="vertical-align:top;">:</td><td><div></div></td></tr><tr><td style="font-weight:bold;vertical-align:top;">server_name</td><td style="vertical-align:top;">:</td><td><div>OMERF-PC</div></td></tr><tr><td style="font-weight:bold;vertical-align:top;">server_port</td><td style="vertical-align:top;">:</td><td><div>8000</div></td></tr><tr><td style="font-weight:bold;vertical-align:top;">server_protocol</td><td style="vertical-align:top;">:</td><td><div>HTTP/1.1</div></td></tr><tr><td style="font-weight:bold;vertical-align:top;">server_software</td><td style="vertical-align:top;">:</td><td><div>Rocket 1.2.6</div></td></tr><tr><td style="font-weight:bold;vertical-align:top;">web2py_path</td><td style="vertical-align:top;">:</td><td><div>C:\\Users\\omerf\\Desktop\\Web\\web2py</div></td></tr><tr><td style="font-weight:bold;vertical-align:top;">web2py_version</td><td style="vertical-align:top;">:</td><td><div>2.14.6-stable+timestamp.2016.05.10.00.21.47</div></td></tr><tr><td style="font-weight:bold;vertical-align:top;">wsgi.errors</td><td style="vertical-align:top;">:</td><td><div>&lt;open file &#x27;&lt;stderr&gt;&#x27;, mode &#x27;w&#x27; at 0x0218D0D0&gt;</div></td></tr><tr><td style="font-weight:bold;vertical-align:top;">wsgi.file_wrapper</td><td style="vertical-align:top;">:</td><td><div>&lt;class wsgiref.util.FileWrapper at 0x02D0F298&gt;</div></td></tr><tr><td style="font-weight:bold;vertical-align:top;">wsgi.input</td><td style="vertical-align:top;">:</td><td><div>&lt;socket._fileobject object at 0x0860BD70&gt;</div></td></tr><tr><td style="font-weight:bold;vertical-align:top;">wsgi.multiprocess</td><td style="vertical-align:top;">:</td><td><div>False</div></td></tr><tr><td style="font-weight:bold;vertical-align:top;">wsgi.multithread</td><td style="vertical-align:top;">:</td><td><div>True</div></td></tr><tr><td style="font-weight:bold;vertical-align:top;">wsgi.run_once</td><td style="vertical-align:top;">:</td><td><div>False</div></td></tr><tr><td style="font-weight:bold;vertical-align:top;">wsgi.url_scheme</td><td style="vertical-align:top;">:</td><td><div>http</div></td></tr><tr><td style="font-weight:bold;vertical-align:top;">wsgi.version</td><td style="vertical-align:top;">:</td><td><div><table><tr><td><div>1</div></td></tr><tr><td><div>0</div></td></tr></table></div></td></tr><tr><td style="font-weight:bold;vertical-align:top;">wsgi_errors</td><td style="vertical-align:top;">:</td><td><div>&lt;open file &#x27;&lt;stderr&gt;&#x27;, mode &#x27;w&#x27; at 0x0218D0D0&gt;</div></td></tr><tr><td style="font-weight:bold;vertical-align:top;">wsgi_file_wrapper</td><td style="vertical-align:top;">:</td><td><div>&lt;class wsgiref.util.FileWrapper at 0x02D0F298&gt;</div></td></tr><tr><td style="font-weight:bold;vertical-align:top;">wsgi_input</td><td style="vertical-align:top;">:</td><td><div>&lt;socket._fileobject object at 0x0860BD70&gt;</div></td></tr><tr><td style="font-weight:bold;vertical-align:top;">wsgi_multiprocess</td><td style="vertical-align:top;">:</td><td><div>False</div></td></tr><tr><td style="font-weight:bold;vertical-align:top;">wsgi_multithread</td><td style="vertical-align:top;">:</td><td><div>True</div></td></tr><tr><td style="font-weight:bold;vertical-align:top;">wsgi_run_once</td><td style="vertical-align:top;">:</td><td><div>False</div></td></tr><tr><td style="font-weight:bold;vertical-align:top;">wsgi_url_scheme</td><td style="vertical-align:top;">:</td><td><div>http</div></td></tr><tr><td style="font-weight:bold;vertical-align:top;">wsgi_version</td><td style="vertical-align:top;">:</td><td><div><table><tr><td><div>1</div></td></tr><tr><td><div>0</div></td></tr></table></div></td></tr></table></div></td></tr><tr><td style="font-weight:bold;vertical-align:top;">extension</td><td style="vertical-align:top;">:</td><td><div>html</div></td></tr><tr><td style="font-weight:bold;vertical-align:top;">folder</td><td style="vertical-align:top;">:</td><td><div>C:\\Users\\omerf\\Desktop\\Web\\web2py\\applications\\paradise_hotel\\</div></td></tr><tr><td style="font-weight:bold;vertical-align:top;">function</td><td style="vertical-align:top;">:</td><td><div>room</div></td></tr><tr><td style="font-weight:bold;vertical-align:top;">global_settings</td><td style="vertical-align:top;">:</td><td><div><table><tr><td style="font-weight:bold;vertical-align:top;">app_folders</td><td style="vertical-align:top;">:</td><td><div>set([&#x27;C:\\\\Users\\\\omerf\\\\Desktop\\\\Web\\\\web2py\\\\applications\\\\welcome\\\\&#x27;, &#x27;C:\\\\Users\\\\omerf\\\\Desktop\\\\Web\\\\web2py\\\\applications\\\\paradise_hotel\\\\&#x27;, &#x27;C:\\\\Users\\\\omerf\\\\Desktop\\\\Web\\\\web2py\\\\applications\\\\week12\\\\&#x27;, &#x27;C:\\\\Users\\\\omerf\\\\Desktop\\\\Web\\\\web2py\\\\applications\\\\admin\\\\&#x27;, &#x27;C:\\\\Users\\\\omerf\\\\Desktop\\\\Web\\\\web2py\\\\applications\\\\web13\\\\&#x27;])</div></td></tr><tr><td style="font-weight:bold;vertical-align:top;">applications_parent</td><td style="vertical-align:top;">:</td><td><div>C:\\Users\\omerf\\Desktop\\Web\\web2py</div></td></tr><tr><td style="font-weight:bold;vertical-align:top;">cmd_args</td><td style="vertical-align:top;">:</td><td><div><table></table></div></td></tr><tr><td style="font-weight:bold;vertical-align:top;">cmd_options</td><td style="vertical-align:top;">:</td><td><div>&lt;Values at 0x2d92cd8: {&#x27;verbose&#x27;: False, &#x27;ip&#x27;: &#x27;127.0.0.1&#x27;, &#x27;debuglevel&#x27;: 30, &#x27;with_scheduler&#x27;: False, &#x27;shutdown_timeout&#x27;: 5, &#x27;taskbar&#x27;: False, &#x27;with_coverage&#x27;: False, &#x27;pid_filename&#x27;: &#x27;httpserver.pid&#x27;, &#x27;maxthreads&#x27;: None, &#x27;softcron&#x27;: False, &#x27;server_name&#x27;: &#x27;OMERF-PC&#x27;, &#x27;bpython&#x27;: False, &#x27;nogui&#x27;: False, &#x27;port&#x27;: 8000, &#x27;print_errors&#x27;: False, &#x27;extcron&#x27;: False, &#x27;runcron&#x27;: False, &#x27;run_system_tests&#x27;: False, &#x27;test&#x27;: None, &#x27;folder&#x27;: &#x27;C:\\\\Users\\\\omerf\\\\Desktop\\\\Web\\\\web2py&#x27;, &#x27;config&#x27;: &#x27;&#x27;, &#x27;minthreads&#x27;: None, &#x27;shell&#x27;: None, &#x27;run&#x27;: &#x27;&#x27;, &#x27;log_filename&#x27;: &#x27;httpserver.log&#x27;, &#x27;profiler_dir&#x27;: None, &#x27;args&#x27;: [&#x27;&#x27;], &#x27;socket_timeout&#x27;: 5, &#x27;ssl_ca_certificate&#x27;: None, &#x27;scheduler&#x27;: None, &#x27;interfaces&#x27;: None, &#x27;ssl_private_key&#x27;: &#x27;&#x27;, &#x27;gae&#x27;: None, &#x27;password&#x27;: &#x27;******&#x27;, &#x27;request_queue_size&#x27;: 5, &#x27;ssl_certificate&#x27;: &#x27;&#x27;, &#x27;cronjob&#x27;: False, &#x27;numthreads&#x27;: None, &#x27;quiet&#x27;: False, &#x27;import_models&#x27;: False, &#x27;timeout&#x27;: 10, &#x27;plain&#x27;: False, &#x27;nobanner&#x27;: False}&gt;</div></td></tr><tr><td style="font-weight:bold;vertical-align:top;">db_sessions</td><td style="vertical-align:top;">:</td><td><div>set([])</div></td></tr><tr><td style="font-weight:bold;vertical-align:top;">debugging</td><td style="vertical-align:top;">:</td><td><div>True</div></td></tr><tr><td style="font-weight:bold;vertical-align:top;">gluon_parent</td><td style="vertical-align:top;">:</td><td><div>C:\\Users\\omerf\\Desktop\\Web\\web2py</div></td></tr><tr><td style="font-weight:bold;vertical-align:top;">is_jython</td><td style="vertical-align:top;">:</td><td><div>False</div></td></tr><tr><td style="font-weight:bold;vertical-align:top;">is_pypy</td><td style="vertical-align:top;">:</td><td><div>False</div></td></tr><tr><td style="font-weight:bold;vertical-align:top;">is_source</td><td style="vertical-align:top;">:</td><td><div>False</div></td></tr><tr><td style="font-weight:bold;vertical-align:top;">local_hosts</td><td style="vertical-align:top;">:</td><td><div><table><tr><td><div>169.254.217.175</div></td></tr><tr><td><div>fe80::587f:ee15:38b8:54c2%15</div></td></tr><tr><td><div>fe80::2182:71e8:e91c:decf%17</div></td></tr><tr><td><div>192.168.1.101</div></td></tr><tr><td><div>::ffff:127.0.0.1</div></td></tr><tr><td><div>::1</div></td></tr><tr><td><div>192.168.200.1</div></td></tr><tr><td><div>192.168.204.2</div></td></tr><tr><td><div>fe80::8026:209c:c3bd:c7c7%14</div></td></tr><tr><td><div>169.254.177.77</div></td></tr><tr><td><div>fe80::5511:d8ff:d5f:b14d%7</div></td></tr><tr><td><div>fe80::71fc:18ad:f78a:d9af%16</div></td></tr><tr><td><div>127.0.0.1</div></td></tr><tr><td><div>OMERF-PC</div></td></tr></table></div></td></tr><tr><td style="font-weight:bold;vertical-align:top;">web2py_version</td><td style="vertical-align:top;">:</td><td><div>2.14.6-stable+timestamp.2016.05.10.00.21.47</div></td></tr></table></div></td></tr><tr><td style="font-weight:bold;vertical-align:top;">is_https</td><td style="vertical-align:top;">:</td><td><div>False</div></td></tr><tr><td style="font-weight:bold;vertical-align:top;">is_local</td><td style="vertical-align:top;">:</td><td><div>True</div></td></tr><tr><td style="font-weight:bold;vertical-align:top;">is_restful</td><td style="vertical-align:top;">:</td><td><div>False</div></td></tr><tr><td style="font-weight:bold;vertical-align:top;">is_scheduler</td><td style="vertical-align:top;">:</td><td><div>False</div></td></tr><tr><td style="font-weight:bold;vertical-align:top;">is_shell</td><td style="vertical-align:top;">:</td><td><div>False</div></td></tr><tr><td style="font-weight:bold;vertical-align:top;">now</td><td style="vertical-align:top;">:</td><td><div>datetime.datetime(2016, 12, 30, 1, 13, 37, 767000)</div></td></tr><tr><td style="font-weight:bold;vertical-align:top;">raw_args</td><td style="vertical-align:top;">:</td><td><div>2</div></td></tr><tr><td style="font-weight:bold;vertical-align:top;">raw_extension</td><td style="vertical-align:top;">:</td><td><div>None</div></td></tr><tr><td style="font-weight:bold;vertical-align:top;">url</td><td style="vertical-align:top;">:</td><td><div>/paradise_hotel/default/room/2</div></td></tr><tr><td style="font-weight:bold;vertical-align:top;">utcnow</td><td style="vertical-align:top;">:</td><td><div>datetime.datetime(2016, 12, 29, 22, 13, 37, 767000)</div></td></tr><tr><td style="font-weight:bold;vertical-align:top;">wsgi</td><td style="vertical-align:top;">:</td><td><div>&lt;gluon.main.LazyWSGI object at 0x08362550&gt;</div></td></tr></table></div>'
tRp58
sS'frames'
p59
(lp60
(dp61
S'file'
p62
S'C:\\Users\\omerf\\Desktop\\Web\\web2py\\gluon\\restricted.py'
p63
sS'dump'
p64
(dp65
S'environment'
p66
S"{'A': <class 'gluon.html.A'>, 'ANY_OF': <class 'gluon.validators.ANY_OF'>, 'ASSIGNJS': <function ASSIGNJS>, 'AppConfig': <function AppConfig>, 'Auth': <class 'gluon.tools.Auth'>, 'B': <class 'gluon.html.B'>, 'BEAUTIFY': <class 'gluon.html.BEAUTIFY'>, 'BODY': <class 'gluon.html.BODY'>, 'BR': <class 'gluon.html.BR'>, 'BUTTON': <class 'gluon.html.BUTTON'>, ...}"
p67
sS'ccode'
p68
S'<code object <module> at 093AC140, file "C:\\User...\\paradise_hotel\\views\\default/room.html", line 1>'
p69
ssS'lnum'
p70
I227
sS'lines'
p71
(dp72
I224
S'            ccode = code'
p73
sI225
S'        else:'
p74
sI226
S'            ccode = compile2(code, layer)'
p75
sI227
S'        exec ccode in environment'
p76
sI228
S'    except HTTP:'
p77
sI229
S'        raise'
p78
sI230
S'    except RestrictedError:'
p79
sI231
S'        # do not encapsulate (obfuscate) the original RestrictedError'
p80
sI222
S'    try:'
p81
sI223
S'        if isinstance(code, types.CodeType):'
p82
ssS'call'
p83
S'(code="response.write(\'<!DOCTYPE html>\\\\n<html>\\\\n<head>\\\\...pe=False)\\npass\\nresponse.write(\'\\\\n\', escape=False)", environment={\'A\': <class \'gluon.html.A\'>, \'ANY_OF\': <class \'gluon.validators.ANY_OF\'>, \'ASSIGNJS\': <function ASSIGNJS>, \'AppConfig\': <function AppConfig>, \'Auth\': <class \'gluon.tools.Auth\'>, \'B\': <class \'gluon.html.B\'>, \'BEAUTIFY\': <class \'gluon.html.BEAUTIFY\'>, \'BODY\': <class \'gluon.html.BODY\'>, \'BR\': <class \'gluon.html.BR\'>, \'BUTTON\': <class \'gluon.html.BUTTON\'>, ...}, layer=r\'C:\\Users\\omerf\\Desktop\\Web\\web2py\\applications\\paradise_hotel\\views\\default/room.html\')'
p84
sS'func'
p85
S'restricted'
p86
sa(dp87
g62
S'C:\\Users\\omerf\\Desktop\\Web\\web2py\\applications\\paradise_hotel\\views\\default\\room.html'
p88
sg64
(dp89
sg70
I69
sg71
(dp90
I64
S'    response.write(\'\\n            <div class="default-form">\\n                    <div class="row clearfix">\\n                        <div class="col-md-18 col-sm-18 co-xs-18 form-group">\\n                            \', escape=False)'
p91
sI65
S'    response.write(form)'
p92
sI66
S"    response.write('\\n                              </div>\\n                            </form>\\n\\n                            </div>\\n                            ', escape=False)"
p93
sI67
S'    pass'
p94
sI68
S'response.write(\'\\n                            <div class="desc-text">\', escape=False)'
p95
sI69
S'response.write(comments)'
p96
sI70
S"response.write('</div>\\n\\n        </div>\\n        </div>\\n\\n        </div>\\n\\n</section>\\n\\n', escape=False)"
p97
sI71
S'response.write(\'<!--Main Footer-->\\n<footer class="main-footer">\\n    <!--Footer Bottom-->\\n  <div class="footer-bottom">\\n            <!--Copyright-->\\n            <div class="copyright text-center social-links">\\n              <a href="#" class="facebook img-circle"><span class="fa fa-facebook-f"></span></a>\\n              <a href="#" class="twitter img-circle"><span class="fa fa-twitter"></span></a>\\n              <a href="#" class="google-plus img-circle"><span class="fa fa-google-plus"></span></a>\\n              <a href="#" class="linkedin img-circle"><span class="fa fa-pinterest-p"></span></a>\\n              <a href="#" class="linkedin img-circle"><span class="fa fa-instagram"></span></a></div>\\n            <div class="copyright text-center">Paradise Hotel 2016 &copy; </div>\\n    </div>\\n\\n</footer>\\n\\n\\n</div>\\n<!--End pagewrapper-->\\n\\n<!--Scroll to top-->\\n<div class="scroll-to-top scroll-to-target" data-target=".main-header"><span class="icon flaticon-building"></span></div>\\n\\n\\n<script src="/paradise_hotel/static/js/jquery.js"></script>\\n<script src="/paradise_hotel/static/js/bootstrap.min.js"></script>\\n<script src="/paradise_hotel/static/js/revolution.min.js"></script>\\n<script src="/paradise_hotel/static/js/jquery.fancybox.pack.js"></script>\\n<script src="/paradise_hotel/static/js/isotope.js"></script>\\n<script src="/paradise_hotel/static/js/owl.js"></script>\\n<!--Locations Map JS-->\\n<script src="http://maps.google.com/maps/api/js?v=3"></script>\\n<script src="/paradise_hotel/static/js/jquery.gmap.js"></script>\\n<script src="/paradise_hotel/static/js/map-script.js"></script>\\n<!--Locations Map End-->\\n<script src="/paradise_hotel/static/js/wow.js"></script>\\n<script src="/paradise_hotel/static/js/script.js"></script>\\n</body>\\n</html>\\n\', escape=False)'
p98
sI72
S"response.write('\\n', escape=False)"
p99
sI73
S'pass'
p100
sI74
S"response.write('\\n', escape=False)"
p101
sI60
S'response.write(\'</h3>\\n            <div class="desc-text">\', escape=False)'
p102
sI61
S'response.write(data["specs"])'
p103
sI62
S"response.write('</div>\\n            ', escape=False)"
p104
sI63
S'if session.user:'
p105
ssg83
S'()'
p106
sg85
S'<module>'
p107
sasS'pyver'
p108
S'Python 2.7.9: C:\\Users\\omerf\\Desktop\\Web\\web2py\\web2py.exe (prefix: )'
p109
sS'session'
p110
g57
(S's+\x08\x00\x00<div><table><tr><td style="font-weight:bold;vertical-align:top;">last_orderby</td><td style="vertical-align:top;">:</td><td><div>None</div></td></tr><tr><td style="font-weight:bold;vertical-align:top;">last_query</td><td style="vertical-align:top;">:</td><td><div>db.room_specs.id&gt;0</div></td></tr><tr><td style="font-weight:bold;vertical-align:top;">user</td><td style="vertical-align:top;">:</td><td><div><table><tr><td style="font-weight:bold;vertical-align:top;">Address</td><td style="vertical-align:top;">:</td><td><div>Mu\xc4\x9fla</div></td></tr><tr><td style="font-weight:bold;vertical-align:top;">Email_Address</td><td style="vertical-align:top;">:</td><td><div>d.omerr.faruk@gmail.com</div></td></tr><tr><td style="font-weight:bold;vertical-align:top;">Gender</td><td style="vertical-align:top;">:</td><td><div>Male</div></td></tr><tr><td style="font-weight:bold;vertical-align:top;">Name</td><td style="vertical-align:top;">:</td><td><div>\xc3\x96mer Faruk</div></td></tr><tr><td style="font-weight:bold;vertical-align:top;">Password</td><td style="vertical-align:top;">:</td><td><div>farukd1995</div></td></tr><tr><td style="font-weight:bold;vertical-align:top;">Phone_Number</td><td style="vertical-align:top;">:</td><td><div>+905393884674</div></td></tr><tr><td style="font-weight:bold;vertical-align:top;">Surname</td><td style="vertical-align:top;">:</td><td><div>Demir</div></td></tr><tr><td style="font-weight:bold;vertical-align:top;">Username</td><td style="vertical-align:top;">:</td><td><div>omerfdemir</div></td></tr><tr><td style="font-weight:bold;vertical-align:top;">delete_record</td><td style="vertical-align:top;">:</td><td><div>&lt;pydal.helpers.classes.RecordDeleter object at 0x083623B0&gt;</div></td></tr><tr><td style="font-weight:bold;vertical-align:top;">id</td><td style="vertical-align:top;">:</td><td><div>1L</div></td></tr><tr><td style="font-weight:bold;vertical-align:top;">update_record</td><td style="vertical-align:top;">:</td><td><div>&lt;pydal.helpers.classes.RecordUpdater object at 0x083625B0&gt;</div></td></tr></table></div></td></tr></table></div>'
tRp111
sS'etype'
p112
S"<type 'exceptions.NameError'>"
p113
sS'date'
p114
S'Fri Dec 30 01:13:38 2016'
p115
sS'response'
p116
g57
(S'sE@\x00\x00<div><table><tr><td style="font-weight:bold;vertical-align:top;">body</td><td style="vertical-align:top;">:</td><td><div>&lt;cStringIO.StringO object at 0x08A25600&gt;</div></td></tr><tr><td style="font-weight:bold;vertical-align:top;">cookies</td><td style="vertical-align:top;">:</td><td><div><table><tr><td style="font-weight:bold;vertical-align:top;">session_id_paradise_hotel</td><td style="vertical-align:top;">:</td><td><div>127.0.0.1-8d5a3fd5-2747-47c7-a1b9-a462dec62366<table><tr><td style="font-weight:bold;vertical-align:top;">comment</td><td style="vertical-align:top;">:</td><td><div></div></td></tr><tr><td style="font-weight:bold;vertical-align:top;">domain</td><td style="vertical-align:top;">:</td><td><div></div></td></tr><tr><td style="font-weight:bold;vertical-align:top;">expires</td><td style="vertical-align:top;">:</td><td><div></div></td></tr><tr><td style="font-weight:bold;vertical-align:top;">httponly</td><td style="vertical-align:top;">:</td><td><div></div></td></tr><tr><td style="font-weight:bold;vertical-align:top;">max-age</td><td style="vertical-align:top;">:</td><td><div></div></td></tr><tr><td style="font-weight:bold;vertical-align:top;">path</td><td style="vertical-align:top;">:</td><td><div>/</div></td></tr><tr><td style="font-weight:bold;vertical-align:top;">secure</td><td style="vertical-align:top;">:</td><td><div></div></td></tr><tr><td style="font-weight:bold;vertical-align:top;">version</td><td style="vertical-align:top;">:</td><td><div></div></td></tr></table></div></td></tr></table></div></td></tr><tr><td style="font-weight:bold;vertical-align:top;">delimiters</td><td style="vertical-align:top;">:</td><td><div><table><tr><td><div>{{</div></td></tr><tr><td><div>}}</div></td></tr></table></div></td></tr><tr><td style="font-weight:bold;vertical-align:top;">files</td><td style="vertical-align:top;">:</td><td><div><table></table></div></td></tr><tr><td style="font-weight:bold;vertical-align:top;">flash</td><td style="vertical-align:top;">:</td><td><div></div></td></tr><tr><td style="font-weight:bold;vertical-align:top;">form_label_separator</td><td style="vertical-align:top;">:</td><td><div></div></td></tr><tr><td style="font-weight:bold;vertical-align:top;">formstyle</td><td style="vertical-align:top;">:</td><td><div>bootstrap3_inline</div></td></tr><tr><td style="font-weight:bold;vertical-align:top;">generic_patterns</td><td style="vertical-align:top;">:</td><td><div><table><tr><td><div>*</div></td></tr></table></div></td></tr><tr><td style="font-weight:bold;vertical-align:top;">google_analytics_id</td><td style="vertical-align:top;">:</td><td><div>None</div></td></tr><tr><td style="font-weight:bold;vertical-align:top;">headers</td><td style="vertical-align:top;">:</td><td><div><table><tr><td style="font-weight:bold;vertical-align:top;">X-Powered-By</td><td style="vertical-align:top;">:</td><td><div>web2py</div></td></tr></table></div></td></tr><tr><td style="font-weight:bold;vertical-align:top;">logo</td><td style="vertical-align:top;">:</td><td><div><a class="navbar-brand" href="http://www.web2py.com/" id="web2py-logo"><b>web<span>2</span>py</b>&trade;&nbsp;</a></div></td></tr><tr><td style="font-weight:bold;vertical-align:top;">menu</td><td style="vertical-align:top;">:</td><td><div><table><tr><td><div><table><tr><td><div>Anasayfa</div></td></tr><tr><td><div>False</div></td></tr><tr><td><div>/paradise_hotel/default/index</div></td></tr><tr><td><div><table></table></div></td></tr></table></div></td></tr><tr><td><div><table><tr><td><div>Sitelerim</div></td></tr><tr><td><div>False</div></td></tr><tr><td><div>/admin/default/site</div></td></tr></table></div></td></tr><tr><td><div><table><tr><td><div>Bu Uygulama</div></td></tr><tr><td><div>False</div></td></tr><tr><td><div>#</div></td></tr><tr><td><div><table><tr><td><div><table><tr><td><div>Design</div></td></tr><tr><td><div>False</div></td></tr><tr><td><div>/admin/default/design/paradise_hotel</div></td></tr></table></div></td></tr><tr><td><div><li class="divider"></li></div></td></tr><tr><td><div><table><tr><td><div>Denet\xc3\xa7i</div></td></tr><tr><td><div>False</div></td></tr><tr><td><div>/admin/default/edit/paradise_hotel/controllers/default.py</div></td></tr></table></div></td></tr><tr><td><div><table><tr><td><div>G\xc3\xb6r\xc3\xbcn\xc3\xbcm</div></td></tr><tr><td><div>False</div></td></tr><tr><td><div>/admin/default/edit/paradise_hotel/views/default/room.html</div></td></tr></table></div></td></tr><tr><td><div><table><tr><td><div>DB Modeli</div></td></tr><tr><td><div>False</div></td></tr><tr><td><div>/admin/default/edit/paradise_hotel/models/db.py</div></td></tr></table></div></td></tr><tr><td><div><table><tr><td><div>Model Men\xc3\xbc</div></td></tr><tr><td><div>False</div></td></tr><tr><td><div>/admin/default/edit/paradise_hotel/models/menu.py</div></td></tr></table></div></td></tr><tr><td><div><table><tr><td><div>Config.ini</div></td></tr><tr><td><div>False</div></td></tr><tr><td><div>/admin/default/edit/paradise_hotel/private/appconfig.ini</div></td></tr></table></div></td></tr><tr><td><div><table><tr><td><div>\xc5\x9eablon</div></td></tr><tr><td><div>False</div></td></tr><tr><td><div>/admin/default/edit/paradise_hotel/views/layout.html</div></td></tr></table></div></td></tr><tr><td><div><table><tr><td><div>Stil \xc5\x9eablonu</div></td></tr><tr><td><div>False</div></td></tr><tr><td><div>/admin/default/edit/paradise_hotel/static/css/web2py-bootstrap3.css</div></td></tr></table></div></td></tr><tr><td><div><table><tr><td><div>Veritaban\xc4\xb1</div></td></tr><tr><td><div>False</div></td></tr><tr><td><div>/paradise_hotel/appadmin/index</div></td></tr></table></div></td></tr><tr><td><div><table><tr><td><div>Hatalar</div></td></tr><tr><td><div>False</div></td></tr><tr><td><div>/admin/default/errors/paradise_hotel</div></td></tr></table></div></td></tr><tr><td><div><table><tr><td><div>Hakk\xc4\xb1nda</div></td></tr><tr><td><div>False</div></td></tr><tr><td><div>/admin/default/about/paradise_hotel</div></td></tr></table></div></td></tr></table></div></td></tr></table></div></td></tr><tr><td><div><table><tr><td><div>web2py.com</div></td></tr><tr><td><div>False</div></td></tr><tr><td><div>#</div></td></tr><tr><td><div><table><tr><td><div><table><tr><td><div>\xc4\xb0ndir</div></td></tr><tr><td><div>False</div></td></tr><tr><td><div>http://www.web2py.com/examples/default/download</div></td></tr></table></div></td></tr><tr><td><div><table><tr><td><div>Destek</div></td></tr><tr><td><div>False</div></td></tr><tr><td><div>http://www.web2py.com/examples/default/support</div></td></tr></table></div></td></tr><tr><td><div><table><tr><td><div>Tan\xc4\xb1t\xc4\xb1m</div></td></tr><tr><td><div>False</div></td></tr><tr><td><div>http://web2py.com/demo_admin</div></td></tr></table></div></td></tr><tr><td><div><table><tr><td><div>H\xc4\xb1zl\xc4\xb1 \xc3\x96rnekler</div></td></tr><tr><td><div>False</div></td></tr><tr><td><div>http://web2py.com/examples/default/examples</div></td></tr></table></div></td></tr><tr><td><div><table><tr><td><div>SSS</div></td></tr><tr><td><div>False</div></td></tr><tr><td><div>http://web2py.com/AlterEgo</div></td></tr></table></div></td></tr><tr><td><div><table><tr><td><div>Videolar</div></td></tr><tr><td><div>False</div></td></tr><tr><td><div>http://www.web2py.com/examples/default/videos/</div></td></tr></table></div></td></tr><tr><td><div><table><tr><td><div>\xc3\x9ccretsiz uygulamalar</div></td></tr><tr><td><div>False</div></td></tr><tr><td><div>http://web2py.com/appliances</div></td></tr></table></div></td></tr><tr><td><div><table><tr><td><div>Eklentiler</div></td></tr><tr><td><div>False</div></td></tr><tr><td><div>http://web2py.com/plugins</div></td></tr></table></div></td></tr><tr><td><div><table><tr><td><div>Tarifeler</div></td></tr><tr><td><div>False</div></td></tr><tr><td><div>http://web2pyslices.com/</div></td></tr></table></div></td></tr></table></div></td></tr></table></div></td></tr><tr><td><div><table><tr><td><div>Kitap</div></td></tr><tr><td><div>False</div></td></tr><tr><td><div>#</div></td></tr><tr><td><div><table><tr><td><div><table><tr><td><div>Online book</div></td></tr><tr><td><div>False</div></td></tr><tr><td><div>http://www.web2py.com/book</div></td></tr></table></div></td></tr><tr><td><div><li class="divider"></li></div></td></tr><tr><td><div><table><tr><td><div>\xc3\x96nz\xc3\xb6s</div></td></tr><tr><td><div>False</div></td></tr><tr><td><div>http://www.web2py.com/book/default/chapter/00</div></td></tr></table></div></td></tr><tr><td><div><table><tr><td><div>Giri\xc5\x9f</div></td></tr><tr><td><div>False</div></td></tr><tr><td><div>http://www.web2py.com/book/default/chapter/01</div></td></tr></table></div></td></tr><tr><td><div><table><tr><td><div>Python</div></td></tr><tr><td><div>False</div></td></tr><tr><td><div>http://www.web2py.com/book/default/chapter/02</div></td></tr></table></div></td></tr><tr><td><div><table><tr><td><div>G\xc3\xb6z gezdir</div></td></tr><tr><td><div>False</div></td></tr><tr><td><div>http://www.web2py.com/book/default/chapter/03</div></td></tr></table></div></td></tr><tr><td><div><table><tr><td><div>\xc3\x87ekirdek</div></td></tr><tr><td><div>False</div></td></tr><tr><td><div>http://www.web2py.com/book/default/chapter/04</div></td></tr></table></div></td></tr><tr><td><div><table><tr><td><div>G\xc3\xb6r\xc3\xbcn\xc3\xbcmler</div></td></tr><tr><td><div>False</div></td></tr><tr><td><div>http://www.web2py.com/book/default/chapter/05</div></td></tr></table></div></td></tr><tr><td><div><table><tr><td><div>Veritaban\xc4\xb1</div></td></tr><tr><td><div>False</div></td></tr><tr><td><div>http://www.web2py.com/book/default/chapter/06</div></td></tr></table></div></td></tr><tr><td><div><table><tr><td><div>Bi\xc3\xa7imler ve Do\xc4\x9frulay\xc4\xb1c\xc4\xb1lar</div></td></tr><tr><td><div>False</div></td></tr><tr><td><div>http://www.web2py.com/book/default/chapter/07</div></td></tr></table></div></td></tr><tr><td><div><table><tr><td><div>E-posta ve k\xc4\xb1sa mesaj (SMS)</div></td></tr><tr><td><div>False</div></td></tr><tr><td><div>http://www.web2py.com/book/default/chapter/08</div></td></tr></table></div></td></tr><tr><td><div><table><tr><td><div>Eri\xc5\x9fim Denetimi</div></td></tr><tr><td><div>False</div></td></tr><tr><td><div>http://www.web2py.com/book/default/chapter/09</div></td></tr></table></div></td></tr><tr><td><div><table><tr><td><div>Hizmetler</div></td></tr><tr><td><div>False</div></td></tr><tr><td><div>http://www.web2py.com/book/default/chapter/10</div></td></tr></table></div></td></tr><tr><td><div><table><tr><td><div>Ajax Tarifleri</div></td></tr><tr><td><div>False</div></td></tr><tr><td><div>http://www.web2py.com/book/default/chapter/11</div></td></tr></table></div></td></tr><tr><td><div><table><tr><td><div>Bile\xc5\x9fenler ve Eklentiler</div></td></tr><tr><td><div>False</div></td></tr><tr><td><div>http://www.web2py.com/book/default/chapter/12</div></td></tr></table></div></td></tr><tr><td><div><table><tr><td><div>Yay\xc4\xb1nlama tarifleri</div></td></tr><tr><td><div>False</div></td></tr><tr><td><div>http://www.web2py.com/book/default/chapter/13</div></td></tr></table></div></td></tr><tr><td><div><table><tr><td><div>Di\xc4\x9fer Tarifler</div></td></tr><tr><td><div>False</div></td></tr><tr><td><div>http://www.web2py.com/book/default/chapter/14</div></td></tr></table></div></td></tr><tr><td><div><table><tr><td><div>Helping web2py</div></td></tr><tr><td><div>False</div></td></tr><tr><td><div>http://www.web2py.com/book/default/chapter/15</div></td></tr></table></div></td></tr><tr><td><div><table><tr><td><div>Buy web2py\'s book</div></td></tr><tr><td><div>False</div></td></tr><tr><td><div>http://stores.lulu.com/web2py</div></td></tr></table></div></td></tr></table></div></td></tr></table></div></td></tr><tr><td><div><table><tr><td><div>Topluluk</div></td></tr><tr><td><div>False</div></td></tr><tr><td><div>None</div></td></tr><tr><td><div><table><tr><td><div><table><tr><td><div>Gruplar</div></td></tr><tr><td><div>False</div></td></tr><tr><td><div>http://www.web2py.com/examples/default/usergroups</div></td></tr></table></div></td></tr><tr><td><div><table><tr><td><div>Twitter</div></td></tr><tr><td><div>False</div></td></tr><tr><td><div>http://twitter.com/web2py</div></td></tr></table></div></td></tr><tr><td><div><table><tr><td><div>Canl\xc4\xb1 Sohbet</div></td></tr><tr><td><div>False</div></td></tr><tr><td><div>http://webchat.freenode.net/?channels=web2py</div></td></tr></table></div></td></tr></table></div></td></tr></table></div></td></tr></table></div></td></tr><tr><td style="font-weight:bold;vertical-align:top;">meta</td><td style="vertical-align:top;">:</td><td><div><table><tr><td style="font-weight:bold;vertical-align:top;">author</td><td style="vertical-align:top;">:</td><td><div>Your Name &lt;you@example.com&gt;</div></td></tr><tr><td style="font-weight:bold;vertical-align:top;">description</td><td style="vertical-align:top;">:</td><td><div>a cool new app</div></td></tr><tr><td style="font-weight:bold;vertical-align:top;">generator</td><td style="vertical-align:top;">:</td><td><div>Web2py Web Framework</div></td></tr><tr><td style="font-weight:bold;vertical-align:top;">keywords</td><td style="vertical-align:top;">:</td><td><div><table><tr><td><div>web2py</div></td></tr><tr><td><div>python</div></td></tr><tr><td><div>framework</div></td></tr></table></div></td></tr></table></div></td></tr><tr><td style="font-weight:bold;vertical-align:top;">models_to_run</td><td style="vertical-align:top;">:</td><td><div><table><tr><td><div>^\\w+\\.py$</div></td></tr><tr><td><div>^default/\\w+\\.py$</div></td></tr><tr><td><div>^default/room/\\w+\\.py$</div></td></tr></table></div></td></tr><tr><td style="font-weight:bold;vertical-align:top;">postprocessing</td><td style="vertical-align:top;">:</td><td><div><table></table></div></td></tr><tr><td style="font-weight:bold;vertical-align:top;">session_client</td><td style="vertical-align:top;">:</td><td><div>127.0.0.1</div></td></tr><tr><td style="font-weight:bold;vertical-align:top;">session_cookie_compression_level</td><td style="vertical-align:top;">:</td><td><div>None</div></td></tr><tr><td style="font-weight:bold;vertical-align:top;">session_cookie_expires</td><td style="vertical-align:top;">:</td><td><div>None</div></td></tr><tr><td style="font-weight:bold;vertical-align:top;">session_data_name</td><td style="vertical-align:top;">:</td><td><div>session_data_paradise_hotel</div></td></tr><tr><td style="font-weight:bold;vertical-align:top;">session_file</td><td style="vertical-align:top;">:</td><td><div>&lt;open file &#x27;C:\\\\Users\\\\omerf\\\\Desktop\\\\Web\\\\web2py\\\\applications\\\\paradise_hotel\\\\sessions\\\\1de\\\\0cb\\\\127.0.0.1-8d5a3fd5-2747-47c7-a1b9-a462dec62366&#x27;, mode &#x27;rb+&#x27; at 0x0939CA18&gt;</div></td></tr><tr><td style="font-weight:bold;vertical-align:top;">session_filename</td><td style="vertical-align:top;">:</td><td><div>C:\\Users\\omerf\\Desktop\\Web\\web2py\\applications\\paradise_hotel\\sessions\\127.0.0.1-8d5a3fd5-2747-47c7-a1b9-a462dec62366</div></td></tr><tr><td style="font-weight:bold;vertical-align:top;">session_hash</td><td style="vertical-align:top;">:</td><td><div>39db4ca53361ac527b5bf237d9b922e3</div></td></tr><tr><td style="font-weight:bold;vertical-align:top;">session_id</td><td style="vertical-align:top;">:</td><td><div>127.0.0.1-8d5a3fd5-2747-47c7-a1b9-a462dec62366</div></td></tr><tr><td style="font-weight:bold;vertical-align:top;">session_id_name</td><td style="vertical-align:top;">:</td><td><div>session_id_paradise_hotel</div></td></tr><tr><td style="font-weight:bold;vertical-align:top;">session_locked</td><td style="vertical-align:top;">:</td><td><div>True</div></td></tr><tr><td style="font-weight:bold;vertical-align:top;">session_masterapp</td><td style="vertical-align:top;">:</td><td><div>paradise_hotel</div></td></tr><tr><td style="font-weight:bold;vertical-align:top;">session_new</td><td style="vertical-align:top;">:</td><td><div>False</div></td></tr><tr><td style="font-weight:bold;vertical-align:top;">session_storage_type</td><td style="vertical-align:top;">:</td><td><div>file</div></td></tr><tr><td style="font-weight:bold;vertical-align:top;">status</td><td style="vertical-align:top;">:</td><td><div>200</div></td></tr><tr><td style="font-weight:bold;vertical-align:top;">subtitle</td><td style="vertical-align:top;">:</td><td><div></div></td></tr><tr><td style="font-weight:bold;vertical-align:top;">title</td><td style="vertical-align:top;">:</td><td><div>Paradise Hotel</div></td></tr><tr><td style="font-weight:bold;vertical-align:top;">view</td><td style="vertical-align:top;">:</td><td><div>default/room.html</div></td></tr></table></div>'
tRp117
sS'locals'
p118
(dp119
S'Service'
p120
S"<class 'gluon.tools.Service'>"
p121
sS'text'
p122
S"'Login Page'"
p123
sS'OBJECT'
p124
S"<class 'gluon.html.OBJECT'>"
p125
sS'SQLDB'
p126
S"<class 'pydal.base.DAL'>"
p127
sg110
S"<Storage {'last_orderby': None, 'last_query': 'd...5882c', 'c421dfc1-5675-4882-878d-ce481117482c']}>"
p128
sS'LINK'
p129
S"<class 'gluon.html.LINK'>"
p130
sS'BR'
p131
S"<class 'gluon.html.BR'>"
p132
sS'local_import'
p133
S'<function <lambda>>'
p134
sS'OPTGROUP'
p135
S"<class 'gluon.html.OPTGROUP'>"
p136
sS'__package__'
p137
S'None'
p138
sS'PRE'
p139
S"<class 'gluon.html.PRE'>"
p140
sS'IS_INT_IN_RANGE'
p141
S"<class 'gluon.validators.IS_INT_IN_RANGE'>"
p142
sS'IS_LOWER'
p143
S"<class 'gluon.validators.IS_LOWER'>"
p144
sS'IS_STRONG'
p145
S"<class 'gluon.validators.IS_STRONG'>"
p146
sS'menu'
p147
S"[('index', 'Home Page'), ('rooms', 'Rooms'), ('gallery', 'Gallery'), ('contact', 'Contact '), ('about_us', 'About Us'), ('login', 'Login Page')]"
p148
sS'cache'
p149
S'<gluon.cache.Cache object>'
p150
sS'IS_IN_DB'
p151
S"<class 'gluon.validators.IS_IN_DB'>"
p152
sS'TAG'
p153
S'<gluon.html.__TAG__ object>'
p154
sS'SQLField'
p155
S"<class 'pydal.objects.Field'>"
p156
sS'mail'
p157
S'<gluon.tools.Mail object>'
p158
sS'BODY'
p159
S"<class 'gluon.html.BODY'>"
p160
sS'IS_DATE_IN_RANGE'
p161
S"<class 'gluon.validators.IS_DATE_IN_RANGE'>"
p162
sS'IFRAME'
p163
S"<class 'gluon.html.IFRAME'>"
p164
sS'URL'
p165
S'<function URL>'
p166
sS'__file__'
p167
S"r'C:\\Users\\omerf\\Desktop\\Web\\web2py\\applications\\paradise_hotel\\views\\default/room.html'"
p168
sS'db'
p169
S'<DAL uri="sqlite://storage.sqlite">'
p170
sS'auth'
p171
S'<gluon.tools.Auth object>'
p172
sS'P'
S"<class 'gluon.html.P'>"
p173
sS'TFOOT'
p174
S"<class 'gluon.html.TFOOT'>"
p175
sS'XHTML'
p176
S"<class 'gluon.html.XHTML'>"
p177
sS'ON'
p178
S'True'
p179
sS'OL'
p180
S"<class 'gluon.html.OL'>"
p181
sS'TEXTAREA'
p182
S"<class 'gluon.html.TEXTAREA'>"
p183
sS'MENU'
p184
S"<class 'gluon.html.MENU'>"
p185
sS'IS_IMAGE'
p186
S"<class 'gluon.validators.IS_IMAGE'>"
p187
sS'EM'
p188
S"<class 'gluon.html.EM'>"
p189
sS'CODE'
p190
S"<class 'gluon.html.CODE'>"
p191
sS'HTTP'
p192
S"<class 'gluon.http.HTTP'>"
p193
sS'HR'
p194
S"<class 'gluon.html.HR'>"
p195
sS'IS_DATETIME'
p196
S"<class 'gluon.validators.IS_DATETIME'>"
p197
sS'STYLE'
p198
S"<class 'gluon.html.STYLE'>"
p199
sS'LABEL'
p200
S"<class 'gluon.html.LABEL'>"
p201
sS'CLEANUP'
p202
S"<class 'gluon.validators.CLEANUP'>"
p203
sS'plugins'
p204
S'<gluon.tools.PluginManager object>'
p205
sS'SELECT'
p206
S"<class 'gluon.html.SELECT'>"
p207
sS'CENTER'
p208
S"<class 'gluon.html.CENTER'>"
p209
sS'Auth'
p210
S"<class 'gluon.tools.Auth'>"
p211
sS'DEVELOPMENT_MENU'
p212
g179
sS'__builtins__'
p213
S"{'ArithmeticError': <type 'exceptions.ArithmeticError'>, 'AssertionError': <type 'exceptions.AssertionError'>, 'AttributeError': <type 'exceptions.AttributeError'>, 'BaseException': <type 'exceptions.BaseException'>, 'BufferError': <type 'exceptions.BufferError'>, 'BytesWarning': <type 'exceptions.BytesWarning'>, 'DeprecationWarning': <type 'exceptions.DeprecationWarning'>, 'EOFError': <type 'exceptions.EOFError'>, 'Ellipsis': Ellipsis, 'EnvironmentError': <type 'exceptions.EnvironmentError'>, ...}"
p214
sS'HTML'
p215
S"<class 'gluon.html.HTML'>"
p216
sS'SQLFORM'
p217
S"<class 'gluon.sqlhtml.SQLFORM'>"
p218
sS'LOAD'
p219
S'<function LOAD>'
p220
sS'redirect'
p221
S'<function redirect>'
p222
sS'FIELDSET'
p223
S"<class 'gluon.html.FIELDSET'>"
p224
sS'IS_EQUAL_TO'
p225
S"<class 'gluon.validators.IS_EQUAL_TO'>"
p226
sS'embed64'
p227
S'<function embed64>'
p228
sS'IS_LIST_OF'
p229
S"<class 'gluon.validators.IS_LIST_OF'>"
p230
sS'INPUT'
p231
S"<class 'gluon.html.INPUT'>"
p232
sS'EMBED'
p233
S"<class 'gluon.html.EMBED'>"
p234
sS'_'
S'<function _>'
p235
sS'myconf'
p236
S"{'forms': {'formstyle': 'bootstrap3_inline', 'se...': {'names': 'localhost:*, 127.0.0.1:*, *:*, *'}}"
p237
sS'H2'
p238
S"<class 'gluon.html.H2'>"
p239
sS'H3'
p240
S"<class 'gluon.html.H3'>"
p241
sS'AppConfig'
p242
S'<function AppConfig>'
p243
sS'H1'
p244
S"<class 'gluon.html.H1'>"
p245
sS'H6'
p246
S"<class 'gluon.html.H6'>"
p247
sS'H4'
p248
S"<class 'gluon.html.H4'>"
p249
sS'H5'
p250
S"<class 'gluon.html.H5'>"
p251
sS'UL'
p252
S"<class 'gluon.html.UL'>"
p253
sS'IS_UPPER'
p254
S"<class 'gluon.validators.IS_UPPER'>"
p255
sS'xmlescape'
p256
S'<function xmlescape>'
p257
sS'IS_TIME'
p258
S"<class 'gluon.validators.IS_TIME'>"
p259
sS'OPTION'
p260
S"<class 'gluon.html.OPTION'>"
p261
sS'TITLE'
p262
S"<class 'gluon.html.TITLE'>"
p263
sS'CRYPT'
p264
S"<class 'gluon.validators.CRYPT'>"
p265
sS'IS_EMPTY_OR'
p266
S"<class 'gluon.validators.IS_EMPTY_OR'>"
p267
sS'MARKMIN'
p268
S"<class 'gluon.html.MARKMIN'>"
p269
sS'path'
p270
S"'login'"
p271
sS'IS_DATE'
p272
S"<class 'gluon.validators.IS_DATE'>"
p273
sS'STRONG'
p274
S"<class 'gluon.html.STRONG'>"
p275
sS'COL'
p276
S"<class 'gluon.html.COL'>"
p277
sS'service'
p278
S'<gluon.tools.Service object>'
p279
sS'SCRIPT'
p280
S"<class 'gluon.html.SCRIPT'>"
p281
sS'TABLE'
p282
S"<class 'gluon.html.TABLE'>"
p283
sS'IS_IPV4'
p284
S"<class 'gluon.validators.IS_IPV4'>"
p285
sS'IS_LENGTH'
p286
S"<class 'gluon.validators.IS_LENGTH'>"
p287
sS'IS_IPV6'
p288
S"<class 'gluon.validators.IS_IPV6'>"
p289
sS'XML'
p290
S"<class 'gluon.html.XML'>"
p291
sS'B'
S"<class 'gluon.html.B'>"
p292
sS'IMG'
p293
S"<class 'gluon.html.IMG'>"
p294
sS'SQLTABLE'
p295
S"<class 'gluon.sqlhtml.SQLTABLE'>"
p296
sS'IS_MATCH'
p297
S"<class 'gluon.validators.IS_MATCH'>"
p298
sS'IS_ALPHANUMERIC'
p299
S"<class 'gluon.validators.IS_ALPHANUMERIC'>"
p300
sS'price_rooms'
p301
S'[]'
p302
sS'SPAN'
p303
S"<class 'gluon.html.SPAN'>"
p304
sS'IS_JSON'
p305
S"<class 'gluon.validators.IS_JSON'>"
p306
sS'IS_IPADDRESS'
p307
S"<class 'gluon.validators.IS_IPADDRESS'>"
p308
sS'IS_SLUG'
p309
S"<class 'gluon.validators.IS_SLUG'>"
p310
sS'BEAUTIFY'
p311
S"<class 'gluon.html.BEAUTIFY'>"
p312
sS'META'
p313
S"<class 'gluon.html.META'>"
p314
sS'BUTTON'
p315
S"<class 'gluon.html.BUTTON'>"
p316
sS'page_title'
p317
S"'Rooms Specs'"
p318
sS'IS_EMAIL'
p319
S"<class 'gluon.validators.IS_EMAIL'>"
p320
sS'IS_NOT_EMPTY'
p321
S"<class 'gluon.validators.IS_NOT_EMPTY'>"
p322
sS'IS_FLOAT_IN_RANGE'
p323
S"<class 'gluon.validators.IS_FLOAT_IN_RANGE'>"
p324
sS'TBODY'
p325
S"<class 'gluon.html.TBODY'>"
p326
sS'CAT'
p327
S"<class 'gluon.html.CAT'>"
p328
sS'Field'
p329
S"<class 'pydal.objects.Field'>"
p330
sS'IS_LIST_OF_EMAILS'
p331
S"<class 'gluon.validators.IS_LIST_OF_EMAILS'>"
p332
sS'DIV'
p333
S"<class 'gluon.html.DIV'>"
p334
sS'LEGEND'
p335
S"<class 'gluon.html.LEGEND'>"
p336
sS'form'
p337
S'<gluon.html.FORM object>'
p338
sS'COLGROUP'
p339
S"<class 'gluon.html.COLGROUP'>"
p340
sS'DAL'
p341
S"<class 'pydal.base.DAL'>"
p342
sS'ASSIGNJS'
p343
S'<function ASSIGNJS>'
p344
sS'TR'
p345
S"<class 'gluon.html.TR'>"
p346
sS'LI'
p347
S"<class 'gluon.html.LI'>"
p348
sS'TH'
p349
S"<class 'gluon.html.TH'>"
p350
sS'TD'
p351
S"<class 'gluon.html.TD'>"
p352
sS'PluginManager'
p353
S"<class 'gluon.tools.PluginManager'>"
p354
sS'IS_URL'
p355
S"<class 'gluon.validators.IS_URL'>"
p356
sS'A'
S"<class 'gluon.html.A'>"
p357
sS'HEAD'
p358
S"<class 'gluon.html.HEAD'>"
p359
sS'IS_DATETIME_IN_RANGE'
p360
S"<class 'gluon.validators.IS_DATETIME_IN_RANGE'>"
p361
sS'FORM'
p362
S"<class 'gluon.html.FORM'>"
p363
sS'I'
S"<class 'gluon.html.I'>"
p364
sS'IS_NOT_IN_DB'
p365
S"<class 'gluon.validators.IS_NOT_IN_DB'>"
p366
sS'data'
p367
S"{'name': 'Superior Suite', 'person': '3', 'price': '200$ per Night', 'room_type': '1+1', 'specs': 'Wireless Internet, Private Balcony, Fridge, Wash...Dish Machine, Tea Machine, Microwave Oven, LED TV'}"
p368
sg116
S"<Storage {'body': <cStringIO.StringO object at 0...da> at 0x08B06AB0>, 'view': 'default/room.html'}>"
p369
sS'THEAD'
p370
S"<class 'gluon.html.THEAD'>"
p371
sS'ANY_OF'
p372
S"<class 'gluon.validators.ANY_OF'>"
p373
sS'IS_NULL_OR'
p374
S"<class 'gluon.validators.IS_EMPTY_OR'>"
p375
sS'__name__'
p376
S"'__restricted__'"
p377
sg56
S"<Storage {'_vars': None, 'function': 'room', 'co...p\\\\Web\\\\web2py\\\\applications\\\\paradise_hotel\\\\'}>"
p378
sS'IS_EXPR'
p379
S"<class 'gluon.validators.IS_EXPR'>"
p380
sS'T'
S'<gluon.languages.translator object>'
p381
sS'menu2'
p382
S"[('login', 'Login Screen'), ('register', 'Register')]"
p383
sS'IS_IN_SET'
p384
S"<class 'gluon.validators.IS_IN_SET'>"
p385
sS'IS_UPLOAD_FILENAME'
p386
S"<class 'gluon.validators.IS_UPLOAD_FILENAME'>"
p387
sS'TT'
p388
S"<class 'gluon.html.TT'>"
p389
sS'IS_DECIMAL_IN_RANGE'
p390
S"<class 'gluon.validators.IS_DECIMAL_IN_RANGE'>"
p391
sssS'traceback'
p392
S'Traceback (most recent call last):\n  File "C:\\Users\\omerf\\Desktop\\Web\\web2py\\gluon\\restricted.py", line 227, in restricted\n    exec ccode in environment\n  File "C:\\Users\\omerf\\Desktop\\Web\\web2py\\applications\\paradise_hotel\\views\\default/room.html", line 69, in <module>\nNameError: name \'comments\' is not defined\n'
p393
s.