(dp1
S'output'
p2
S"<type 'exceptions.NameError'> name 'user' is not defined"
p3
sS'layer'
p4
S'C:\\Users\\omerf\\Desktop\\Web\\web2py\\applications\\paradise_hotel\\views\\default/index.html'
p5
sS'code'
p6
S'title = globals().get("title", "")\nresponse.write(\'\\n\', escape=False)\ndef menu_items():\n    # active = active or ""\n    active = globals().get("active", "")\n    items = [("index", "Home"), ("about_us", "About"),\n    ("rooms", "Rooms"),("login","Login Screen")]\n    output = ""\n    for (path, text) in items:\n        href = URL(path)\n        if path == active:\n            output += str(LI(A(text, _href=href, _class="active")))\n            # output += "<li><a href=\'%s\' class=\'active\'>%s</a></li>" % (href,text)\n        else:\n            output += str(LI(A(text, _href=href)))\n            # output += "<li><a href=\'%s\'>%s</a></li>" % (href,text)\n            pass\n        pass\n    return output\nresponse.write(\'\\n\', escape=False)\nresponse.write(\'<!DOCTYPE html>\\n<html>\\n<head>\\n<meta charset="utf-8">\\n<title>\', escape=False)\nresponse.write(page_title)\nresponse.write(\'</title>\\n<!-- Stylesheets -->\\n<link href="/paradise_hotel/static/css/bootstrap.css" rel="stylesheet">\\n<link href="/paradise_hotel/static/css/revolution-slider.css" rel="stylesheet">\\n<link href="/paradise_hotel/static/css/style.css" rel="stylesheet">\\n<!-- Responsive -->\\n<meta http-equiv="X-UA-Compatible" content="IE=edge">\\n<meta name="viewport" content="width=device-width, initial-scale=1.0, maximum-scale=1.0, user-scalable=0">\\n<link href="/paradise_hotel/static/css/responsive.css" rel="stylesheet">\\n<!--[if lt IE 9]><script src="http://html5shim.googlecode.com/svn/trunk/html5.js"></script><![endif]-->\\n<!--[if lt IE 9]><script src="js/respond.js"></script><![endif]-->\\n</head>\\n\\n<body>\\n<div class="page-wrapper">\\n\\n\\n\\n    <!-- Main Header-->\\n    <header class="main-header">\\n\\n    \\t<!--Header-Upper-->\\n        <div class="header-upper">\\n        \\t<div class="auto-container">\\n            \\t<div class="clearfix">\\n\\n                \\t<div class="pull-left logo-outer">\\n                    \\t<div class="logo"><a href="#"><img src="/paradise_hotel/static/images/logo.jpg" alt="" title="Homestate"></a></div>\\n                    </div>\\n\\n                    <div class="pull-right upper-right clearfix">\\n\\n                        <!--Info Box-->\\n                        <div class="upper-column info-box">\\n                        \\t<div class="icon-box"><span class="flaticon-technology-2"></span></div>\\n                            <ul>\\n                            \\t<li><strong>320 4567 345</strong></li>\\n                                <li><a href="#">info@example.com</a></li>\\n                            </ul>\\n                        </div>\\n\\n                        <!--Info Box-->\\n                        <div class="upper-column info-box">\\n                        \\t<div class="icon-box"><span class="flaticon-location-2"></span></div>\\n                            <ul>\\n                            \\t<li><strong>Stadium Market</strong></li>\\n                                <li>Mirpur Road No  11</li>\\n                            </ul>\\n                        </div>\\n                        \', escape=False)\nif session.user:\n    response.write(\'\\n                        <!--Info Box-->\\n                            <div class="upper-column info-box">\\n                                <ul>\\n                                    <li><strong>Hello Hello \', escape=False)\n    response.write(A(user.Username\n    ))\n    response.write(\'.</strong></li>\\n                                    <li>Mirpur Road No  11</li>\\n                                </ul>\\n                            </div>\\n                            \', escape=False)\nelse:\n    response.write(\'\\n                        <!--Info Box-->\\n                            <div class="upper-column info-box">\\n                                <ul>\\n                                \\t<li><strong>Stadium Market</strong></li>\\n                                    <li>Mirpur Road No  11</li>\\n                                </ul>\\n                            </div>\\n\\n                    </div>\\n                    \', escape=False)\n    pass\nresponse.write(\'\\n                    \', escape=False)\npass\nresponse.write(\'\\n\\n                </div>\\n            </div>\\n        </div>\\n\\n        <!--Header-Lower-->\\n        <div class="header-lower">\\n        \\t<!--Background Layer-->\\n            <div class="bg-layer"></div>\\n\\n\\n        \\t<div class="auto-container">\\n            \\t<div class="nav-outer clearfix">\\n                    <!-- Main Menu -->\\n                    <nav class="main-menu">\\n                        <div class="navbar-header">\\n                            <!-- Toggle Button -->\\n                            <button type="button" class="navbar-toggle" data-toggle="collapse" data-target=".navbar-collapse">\\n                            <span class="icon-bar"></span>\\n                            <span class="icon-bar"></span>\\n                            <span class="icon-bar"></span>\\n                            </button>\\n                        </div>\\n\', escape=False)\nresponse.write(\'\\n\', escape=False)\nresponse.write(\'\\n<div class="navbar-collapse collapse clearfix">\\n    <ul class="navigation clearfix">\\n      \', escape=False)\nmenu = [ ("index", "Home Page"),("rooms", "Rooms"),("gallery", "Gallery"),("contact", "Contact "),\n("about_us","About Us")  ]\nfor (path, text) in menu:\n    if request.controller == "default" and request.function== path:\n        response.write(LI(A(text, _href=URL(\'default\',path), _class="active" )))\n    else:\n        response.write(LI(A(text, _href=URL(\'default\',path) )))\n        response.write(\'\\n           \', escape=False)\n        pass\n    response.write(\'\\n       \', escape=False)\n    pass\nresponse.write(\'\\n\\n         <li class="dropdown"><a href="#">User</a>\\n           <ul>\\n             <li>\\n       \', escape=False)\nmenu2 = [ ("login", "Login Screen"),("register","Register") ]\nfor (path, text) in menu2:\n    if request.controller == "user" and request.function== path:\n        response.write(LI(A(text, _href=URL(\'user\',path), _class="active" )))\n    else:\n        response.write(LI(A(text, _href=URL(\'user\',path) )))\n        response.write(\'\\n            \', escape=False)\n        pass\n    response.write(\'\\n        \', escape=False)\n    pass\nresponse.write(\'\\n      </li>\\n    </ul>\\n</div>\\n</nav><!-- Main Menu End-->\\n\\n<div class="btn-outer"><a href="contact.html" class="theme-btn visit-btn">Schedule Visit</a></div>\\n\\n</div>\\n</div>\\n</div>\\n\\n\\n<!--Sticky Header-->\\n<div class="sticky-header">\\n<div class="auto-container clearfix">\\n<!--Logo-->\\n<div class="logo pull-left">\\n<a href="index.html" class="img-responsive"><img src="/paradise_hotel/static/images/logo-small.png" alt="Homestate"></a>\\n</div>\\n\\n<!--Right Col-->\\n<div class="right-col pull-right">\\n<!-- Main Menu -->\\n<nav class="main-menu">\\n<div class="navbar-header">\\n    <!-- Toggle Button -->\\n    <button type="button" class="navbar-toggle" data-toggle="collapse" data-target=".navbar-collapse">\\n    <span class="icon-bar"></span>\\n    <span class="icon-bar"></span>\\n    <span class="icon-bar"></span>\\n    </button>\\n</div>\\n\\n<div class="navbar-collapse collapse clearfix">\\n  <ul class="navigation clearfix">\\n    \', escape=False)\nmenu = [ ("index", "Home Page"),("rooms", "Rooms"),("gallery", "Gallery"),("contact", "Contact "),\n("about_us", "About Us"),("login","Login Page") ]\nfor (path, text) in menu:\n    if request.controller == "default" and request.function== path:\n        response.write(LI(A(text, _href=URL(\'default\',path), _class="active" )))\n    else:\n        response.write(LI(A(text, _href=URL(\'default\',path) )))\n        response.write(\'\\n         \', escape=False)\n        pass\n    response.write(\'\\n     \', escape=False)\n    pass\nresponse.write(\'\\n  </ul>\\n\\n</div>\\n</nav><!-- Main Menu End-->\\n</div>\\n\\n</div>\\n</div><!--End Bounce In Header-->\\n\\n</header>\\n<!--End Main Header -->\\n\', escape=False)\nresponse.write(\'\\n\\n\\n\', escape=False)\nif  request.controller == "default" and request.function == "index"  :\n    response.write(\'\\n   \', escape=False)\n    response.write(\'<!--Main Slider-->\\n<section class="main-slider">\\n\\n    <div class="tp-banner-container">\\n        <div class="tp-banner">\\n            <ul>\\n\\n\\n                <li data-transition="fade" data-slotamount="1" data-masterspeed="1000" data-thumb="images/main-slider/1.jpg"  data-saveperformance="off"  data-title="Awesome Title Here">\\n                <img src="images/main-slider/1.jpg"  alt=""  data-bgposition="center top" data-bgfit="cover" data-bgrepeat="no-repeat">\\n\\n\\n                    <div class="tp-caption sfl sfb tp-resizeme"\\n                    data-x="left" data-hoffset="15"\\n                    data-y="center" data-voffset="20"\\n                    data-speed="1500"\\n                    data-start="0"\\n                    data-easing="easeOutExpo"\\n                    data-splitin="none"\\n                    data-splitout="none"\\n                    data-elementdelay="0.01"\\n                    data-endelementdelay="0.3"\\n                    data-endspeed="1200"\\n                    data-endeasing="Power4.easeIn">\\n\\n                        <!--Slide Content-->\\n                        <div class="outer-box">\\n                            <div class="upper-content">\\n                                <h2><strong>Blue</strong>berry</h2>\\n                                <div class="text">509 Massachusetts Avenue, <br>Florida, United Sate</div>\\n                                <ul class="info-list clearfix">\\n                                    <li><strong>9,560</strong> Area SQ.FT</li>\\n                                    <li><strong>4</strong> Bedrooms</li>\\n                                    <li><strong>2</strong> Bathrooms</li>\\n                                </ul>\\n                            </div>\\n                            <div class="lower-info">\\n                                <div class="data-cell price">$1,850,00</div>\\n                                <a href="#" class="data-cell read-more">VIEW DETAILS</a>\\n                            </div>\\n                        </div>\\n\\n                    </div>\\n\\n                </li>\\n\\n                <li data-transition="slidedown" data-slotamount="1" data-masterspeed="1000" data-thumb="images/main-slider/2.jpg"  data-saveperformance="off"  data-title="Awesome Title Here">\\n                <img src="images/main-slider/2.jpg"  alt=""  data-bgposition="center top" data-bgfit="cover" data-bgrepeat="no-repeat">\\n\\n\\n                    <div class="tp-caption sfb sfb tp-resizeme"\\n                    data-x="center" data-hoffset="0"\\n                    data-y="center" data-voffset="20"\\n                    data-speed="1500"\\n                    data-start="0"\\n                    data-easing="easeOutExpo"\\n                    data-splitin="none"\\n                    data-splitout="none"\\n                    data-elementdelay="0.01"\\n                    data-endelementdelay="0.3"\\n                    data-endspeed="1200"\\n                    data-endeasing="Power4.easeIn">\\n\\n                        <!--Slide Content-->\\n                        <div class="outer-box">\\n                            <div class="upper-content text-center">\\n                                <h2><strong>Red</strong>berry</h2>\\n                                <div class="text">509 Massachusetts Avenue, <br>Florida, United Sate</div>\\n                                <ul class="info-list clearfix">\\n                                    <li><strong>9,560</strong> Area SQ.FT</li>\\n                                    <li><strong>4</strong> Bedrooms</li>\\n                                    <li><strong>2</strong> Bathrooms</li>\\n                                </ul>\\n                            </div>\\n                            <div class="lower-info">\\n                                <div class="data-cell price">$1,850,00</div>\\n                                <a href="#" class="data-cell read-more">VIEW DETAILS</a>\\n                            </div>\\n                        </div>\\n\\n                    </div>\\n\\n                </li>\\n\\n                <li data-transition="fade" data-slotamount="1" data-masterspeed="1000" data-thumb="images/main-slider/1.jpg"  data-saveperformance="off"  data-title="Awesome Title Here">\\n                <img src="images/main-slider/1.jpg"  alt=""  data-bgposition="center top" data-bgfit="cover" data-bgrepeat="no-repeat">\\n\\n\\n                    <div class="tp-caption sfr sfb tp-resizeme"\\n                    data-x="right" data-hoffset="-15"\\n                    data-y="center" data-voffset="20"\\n                    data-speed="1500"\\n                    data-start="0"\\n                    data-easing="easeOutExpo"\\n                    data-splitin="none"\\n                    data-splitout="none"\\n                    data-elementdelay="0.01"\\n                    data-endelementdelay="0.3"\\n                    data-endspeed="1200"\\n                    data-endeasing="Power4.easeIn">\\n\\n                        <!--Slide Content-->\\n                        <div class="outer-box">\\n                            <div class="upper-content">\\n                                <h2><strong>Blue</strong>berry</h2>\\n                                <div class="text">509 Massachusetts Avenue, <br>Florida, United Sate</div>\\n                                <ul class="info-list clearfix">\\n                                    <li><strong>9,560</strong> Area SQ.FT</li>\\n                                    <li><strong>4</strong> Bedrooms</li>\\n                                    <li><strong>2</strong> Bathrooms</li>\\n                                </ul>\\n                            </div>\\n                            <div class="lower-info">\\n                                <div class="data-cell price">$1,850,00</div>\\n                                <a href="#" class="data-cell read-more">VIEW DETAILS</a>\\n                            </div>\\n                        </div>\\n\\n                    </div>\\n\\n                </li>\\n\\n                <li data-transition="slideup" data-slotamount="1" data-masterspeed="1000" data-thumb="images/main-slider/2.jpg"  data-saveperformance="off"  data-title="Awesome Title Here">\\n                <img src="images/main-slider/2.jpg"  alt=""  data-bgposition="center top" data-bgfit="cover" data-bgrepeat="no-repeat">\\n\\n\\n                    <div class="tp-caption sft sfb tp-resizeme"\\n                    data-x="center" data-hoffset="0"\\n                    data-y="center" data-voffset="20"\\n                    data-speed="1500"\\n                    data-start="0"\\n                    data-easing="easeOutExpo"\\n                    data-splitin="none"\\n                    data-splitout="none"\\n                    data-elementdelay="0.01"\\n                    data-endelementdelay="0.3"\\n                    data-endspeed="1200"\\n                    data-endeasing="Power4.easeIn">\\n\\n                        <!--Slide Content-->\\n                        <div class="outer-box">\\n                            <div class="upper-content text-center">\\n                                <h2><strong>Red</strong>berry</h2>\\n                                <div class="text">509 Massachusetts Avenue, <br>Florida, United Sate</div>\\n                                <ul class="info-list clearfix">\\n                                    <li><strong>9,560</strong> Area SQ.FT</li>\\n                                    <li><strong>4</strong> Bedrooms</li>\\n                                    <li><strong>2</strong> Bathrooms</li>\\n                                </ul>\\n                            </div>\\n                            <div class="lower-info">\\n                                <div class="data-cell price">$1,850,00</div>\\n                                <a href="#" class="data-cell read-more">VIEW DETAILS</a>\\n                            </div>\\n                        </div>\\n\\n                    </div>\\n\\n                </li>\\n\\n            </ul>\\n\\n        </div>\\n    </div>\\n</section>\\n\', escape=False)\n    response.write(\'\\n   \', escape=False)\n    response.write(\'<!--Gallery Section-->\\n<section class="gallery-section">\\n  <div class="auto-container">\\n\\n        <!--Sec Title-->\\n      <div class="sec-title centered">\\n          <h2 class="no-margin-bottom"><strong>Photo</strong> Gallery</h2>\\n        </div>\\n\\n        <!--Sortable Masonry-->\\n        <div class="sortable-masonry mixed-gallery-section">\\n\\n            <!--Filter-->\\n            <div class="filters text-center">\\n                <ul class="filter-tabs filter-btns clearfix">\\n                    <li class="active filter" data-role="button" data-filter=".all">All</li>\\n                    <li class="filter" data-role="button" data-filter=".bedrooms">Bedrooms</li>\\n                    <li class="filter" data-role="button" data-filter=".bathrooms">Bathrooms</li>\\n                    <li class="filter" data-role="button" data-filter=".kitchen">Kitchen</li>\\n                    <li class="filter" data-role="button" data-filter=".garage">Garage</li>\\n                    <li class="filter" data-role="button" data-filter=".basement">Basement</li>\\n                </ul>\\n            </div>\\n\\n\\n            <div class="items-container clearfix">\\n\\n                <!--Default Portfolio Item-->\\n                <div class="default-portfolio-item masonry-item small-block all garage basement">\\n                    <div class="inner-box">\\n                        <figure class="image-box"><img src="images/gallery/1.jpg" alt=""></figure>\\n                        <!--Overlay Box-->\\n                        <div class="overlay-box">\\n                            <div class="overlay-inner">\\n                                <div class="content">\\n                                    <h3><a href="take-tour.html">BEDROOM</a></h3>\\n                                    <a href="images/gallery/1.jpg" class="lightbox-image image-link" title="Image Caption Here"><span class="icon flaticon-cross"></span></a>\\n                                </div>\\n                            </div>\\n                        </div>\\n                    </div>\\n                </div>\\n                <!--Default Portfolio Item-->\\n                <div class="default-portfolio-item masonry-item small-block all bedrooms bathrooms kitchen garage basement">\\n                    <div class="inner-box">\\n                        <figure class="image-box"><img src="images/gallery/2.jpg" alt=""></figure>\\n                        <!--Overlay Box-->\\n                        <div class="overlay-box">\\n                            <div class="overlay-inner">\\n                                <div class="content">\\n                                    <h3><a href="take-tour.html">BEDROOM</a></h3>\\n                                    <a href="images/gallery/2.jpg" class="lightbox-image image-link" title="Image Caption Here"><span class="icon flaticon-cross"></span></a>\\n                                </div>\\n                            </div>\\n                        </div>\\n                    </div>\\n                </div>\\n                <!--Default Portfolio Item-->\\n                <div class="default-portfolio-item masonry-item small-block all kitchen garage basement">\\n                    <div class="inner-box">\\n                        <figure class="image-box"><img src="images/gallery/3.jpg" alt=""></figure>\\n                        <!--Overlay Box-->\\n                        <div class="overlay-box">\\n                            <div class="overlay-inner">\\n                                <div class="content">\\n                                    <h3><a href="take-tour.html">BEDROOM</a></h3>\\n                                    <a href="images/gallery/3.jpg" class="lightbox-image image-link" title="Image Caption Here"><span class="icon flaticon-cross"></span></a>\\n                                </div>\\n                            </div>\\n                        </div>\\n                    </div>\\n                </div>\\n                <!--Default Portfolio Item-->\\n                <div class="default-portfolio-item masonry-item small-block all bedrooms bathrooms kitchen">\\n                    <div class="inner-box">\\n                        <figure class="image-box"><img src="images/gallery/4.jpg" alt=""></figure>\\n                        <!--Overlay Box-->\\n                        <div class="overlay-box">\\n                            <div class="overlay-inner">\\n                                <div class="content">\\n                                    <h3><a href="take-tour.html">BEDROOM</a></h3>\\n                                    <a href="images/gallery/4.jpg" class="lightbox-image image-link" title="Image Caption Here"><span class="icon flaticon-cross"></span></a>\\n                                </div>\\n                            </div>\\n                        </div>\\n                    </div>\\n                </div>\\n                <!--Default Portfolio Item-->\\n                <div class="default-portfolio-item masonry-item small-block all bathrooms kitchen garage">\\n                    <div class="inner-box">\\n                        <figure class="image-box"><img src="images/gallery/5.jpg" alt=""></figure>\\n                        <!--Overlay Box-->\\n                        <div class="overlay-box">\\n                            <div class="overlay-inner">\\n                                <div class="content">\\n                                    <h3><a href="take-tour.html">BEDROOM</a></h3>\\n                                    <a href="images/gallery/5.jpg" class="lightbox-image image-link" title="Image Caption Here"><span class="icon flaticon-cross"></span></a>\\n                                </div>\\n                            </div>\\n                        </div>\\n                    </div>\\n                </div>\\n                <!--Default Portfolio Item-->\\n                <div class="default-portfolio-item masonry-item big-block all bedrooms bathrooms basement">\\n                    <div class="inner-box">\\n                        <figure class="image-box"><img src="images/gallery/6.jpg" alt=""></figure>\\n                        <!--Overlay Box-->\\n                        <div class="overlay-box">\\n                            <div class="overlay-inner">\\n                                <div class="content">\\n                                    <h3><a href="take-tour.html">BEDROOM</a></h3>\\n                                    <a href="images/gallery/6.jpg" class="lightbox-image image-link" title="Image Caption Here"><span class="icon flaticon-cross"></span></a>\\n                                </div>\\n                            </div>\\n                        </div>\\n                    </div>\\n                </div>\\n\\n            </div>\\n\\n        </div><!--End Sortable Masonry-->\\n\\n    </div>\\n\\n</section>\\n\', escape=False)\n    response.write(\'\\n   \', escape=False)\n    response.write(\'\\n    <!--Nearby Locations-->\\n    <section class="nearby-locations">\\n    \\t<div class="auto-container">\\n        \\t<!--Sec Title-->\\n        \\t<div class="sec-title centered">\\n            \\t<h2><strong>Nearby</strong> Places</h2>\\n                <div class="desc-text">Lorem ipsum dolor sit amet, ea pro error pertinacia, nam id munere detraxit. Wisi decore discere eum an, autem erant usu eu, per ubique legendos intellegam in. An est melius vivendo. Hinc temporibus nec te, vero consetetur an qui nam.</div>\\n            </div>\\n\\n            <div class="row clearfix">\\n            \\t<!--Location Block-->\\n                <div class="location-block col-md-3 col-sm-6 col-xs-12">\\n                \\t<div class="inner-box red-theme">\\n                    \\t<div class="icon-box"><span class="icon flaticon-book-2"></span></div>\\n                        <h4>School</h4>\\n                        <div class="location-title">Badda high school</div>\\n                        <div class="location-distance">1 km</div>\\n                    </div>\\n                </div>\\n\\n                <!--Location Block-->\\n                <div class="location-block col-md-3 col-sm-6 col-xs-12">\\n                \\t<div class="inner-box green-theme">\\n                    \\t<div class="icon-box"><span class="icon flaticon-symbol-3"></span></div>\\n                        <h4>Golf Club</h4>\\n                        <div class="location-title">Army golf club</div>\\n                        <div class="location-distance">2 km</div>\\n                    </div>\\n                </div>\\n\\n                <!--Location Block-->\\n                <div class="location-block col-md-3 col-sm-6 col-xs-12">\\n                \\t<div class="inner-box purple-theme">\\n                    \\t<div class="icon-box"><span class="icon flaticon-heart-shape-outline-with-lifeline"></span></div>\\n                        <h4>Hospital</h4>\\n                        <div class="location-title">Apollo National hospital</div>\\n                        <div class="location-distance">4 km</div>\\n                    </div>\\n                </div>\\n\\n                <!--Location Block-->\\n                <div class="location-block col-md-3 col-sm-6 col-xs-12">\\n                \\t<div class="inner-box blue-theme">\\n                    \\t<div class="icon-box"><span class="icon flaticon-food-1"></span></div>\\n                        <h4>Resturent</h4>\\n                        <div class="location-title">Big kabab Resturent</div>\\n                        <div class="location-distance">6 km</div>\\n                    </div>\\n                </div>\\n\\n            </div>\\n\\n        </div>\\n\\n        <!--Map Box-->\\n        <div id="locations-box" class="locations-box"></div>\\n\\n    </section>\\n\', escape=False)\n    response.write(\'\\n   \', escape=False)\n    response.write(\'<!--Testimonials-->\\n<section class="testimonials-section" style="background-image:url(images/background/image-2.jpg);">\\n<div class="auto-container">\\n\\n        <div class="sec-title centered">\\n            <h2><strong>Testi</strong>monials</h2>\\n        </div>\\n\\n        <!--Slider-->\\n      <div class="testimonials-slider testimonials-carousel">\\n\\n            <!--Slide-->\\n            <article class="slide-item">\\n                <div class="slide-text">\\n                    <p>\\xe2\\x80\\x9cBut I must explain to you the how all this mistaken idea of thealorem qco denouncing pleasure\\xe2\\x80\\x9d</p>\\n                </div>\\n                <div class="info-box">\\n                  <figure class="image-box"><img src="images/resource/testi-image-1.jpg" alt=""></figure>\\n                  <h3>Mark Pine</h3>\\n                    <p class="designation">Co- Founder at Houzz</p>\\n                </div>\\n            </article>\\n\\n            <!--Slide-->\\n            <article class="slide-item">\\n                <div class="slide-text">\\n                    <p>\\xe2\\x80\\x9cBut I must explain to you the how all this mistaken idea of thealorem qco denouncing pleasure\\xe2\\x80\\x9d</p>\\n                </div>\\n                <div class="info-box">\\n                  <figure class="image-box"><img src="images/resource/testi-image-2.jpg" alt=""></figure>\\n                  <h3>Mark Pine</h3>\\n                    <p class="designation">Co- Founder at Houzz</p>\\n                </div>\\n            </article>\\n\\n            <!--Slide-->\\n            <article class="slide-item">\\n                <div class="slide-text">\\n                    <p>\\xe2\\x80\\x9cBut I must explain to you the how all this mistaken idea of thealorem qco denouncing pleasure\\xe2\\x80\\x9d</p>\\n                </div>\\n                <div class="info-box">\\n                  <figure class="image-box"><img src="images/resource/testi-image-3.jpg" alt=""></figure>\\n                  <h3>Mark Pine</h3>\\n                    <p class="designation">Co- Founder at Houzz</p>\\n                </div>\\n            </article>\\n\\n            <!--Slide-->\\n            <article class="slide-item">\\n                <div class="slide-text">\\n                    <p>\\xe2\\x80\\x9cBut I must explain to you the how all this mistaken idea of thealorem qco denouncing pleasure\\xe2\\x80\\x9d</p>\\n                </div>\\n                <div class="info-box">\\n                  <figure class="image-box"><img src="images/resource/testi-image-1.jpg" alt=""></figure>\\n                  <h3>Mark Pine</h3>\\n                    <p class="designation">Co- Founder at Houzz</p>\\n                </div>\\n            </article>\\n\\n            <!--Slide-->\\n            <article class="slide-item">\\n                <div class="slide-text">\\n                    <p>\\xe2\\x80\\x9cBut I must explain to you the how all this mistaken idea of thealorem qco denouncing pleasure\\xe2\\x80\\x9d</p>\\n                </div>\\n                <div class="info-box">\\n                  <figure class="image-box"><img src="images/resource/testi-image-2.jpg" alt=""></figure>\\n                  <h3>Mark Pine</h3>\\n                    <p class="designation">Co- Founder at Houzz</p>\\n                </div>\\n            </article>\\n\\n            <!--Slide-->\\n            <article class="slide-item">\\n                <div class="slide-text">\\n                    <p>\\xe2\\x80\\x9cBut I must explain to you the how all this mistaken idea of thealorem qco denouncing pleasure\\xe2\\x80\\x9d</p>\\n                </div>\\n                <div class="info-box">\\n                  <figure class="image-box"><img src="images/resource/testi-image-3.jpg" alt=""></figure>\\n                  <h3>Mark Pine</h3>\\n                    <p class="designation">Co- Founder at Houzz</p>\\n                </div>\\n            </article>\\n\\n            <!--Slide-->\\n            <article class="slide-item">\\n                <div class="slide-text">\\n                    <p>\\xe2\\x80\\x9cBut I must explain to you the how all this mistaken idea of thealorem qco denouncing pleasure\\xe2\\x80\\x9d</p>\\n                </div>\\n                <div class="info-box">\\n                  <figure class="image-box"><img src="images/resource/testi-image-1.jpg" alt=""></figure>\\n                  <h3>Mark Pine</h3>\\n                    <p class="designation">Co- Founder at Houzz</p>\\n                </div>\\n            </article>\\n\\n            <!--Slide-->\\n            <article class="slide-item">\\n                <div class="slide-text">\\n                    <p>\\xe2\\x80\\x9cBut I must explain to you the how all this mistaken idea of thealorem qco denouncing pleasure\\xe2\\x80\\x9d</p>\\n                </div>\\n                <div class="info-box">\\n                  <figure class="image-box"><img src="images/resource/testi-image-2.jpg" alt=""></figure>\\n                  <h3>Mark Pine</h3>\\n                    <p class="designation">Co- Founder at Houzz</p>\\n                </div>\\n            </article>\\n\\n            <!--Slide-->\\n            <article class="slide-item">\\n                <div class="slide-text">\\n                    <p>\\xe2\\x80\\x9cBut I must explain to you the how all this mistaken idea of thealorem qco denouncing pleasure\\xe2\\x80\\x9d</p>\\n                </div>\\n                <div class="info-box">\\n                  <figure class="image-box"><img src="images/resource/testi-image-3.jpg" alt=""></figure>\\n                  <h3>Mark Pine</h3>\\n                    <p class="designation">Co- Founder at Houzz</p>\\n                </div>\\n            </article>\\n\\n\\n        </div>\\n\\n    </div>\\n</section>\\n\', escape=False)\n    response.write(\'\\n   \', escape=False)\n    response.write(\'\\n    <!--Map Section-->\\n    <section class="map-section">\\n        <!--Map Container-->\\n        <div class="map-outer">\\n            <!--Map Canvas-->\\n            <div class="map-canvas"\\n                data-zoom="12"\\n                data-lat="23.814233"\\n                data-lng="90.410397"\\n                data-type="roadmap"\\n                data-hue="#ffc400"\\n                data-title="Dhaka"\\n                data-content="Dhaka, Bangladesh<br><a href=\\\'mailto:info@youremail.com\\\'>info@youremail.com</a>">\\n            </div>\\n\\n            <!--Info Outer-->\\n            <div class="outer-container">\\n            \\t<div class="info-container wow fadeInUp" data-wow-delay="300ms" data-wow-duration="1500ms">\\n                \\t<div class="row clearfix">\\n                    \\t<!--Info Column-->\\n                        <div class="info-column col-md-4 col-sm-6 col-xs-12">\\n                        \\t<div class="inner-box">\\n                            \\t<div class="icon"><span class="flaticon-location-2"></span></div>\\n                                <h4>Cowraster Mor</h4>\\n                                <div class="text">Mirpur Road No-11</div>\\n                            </div>\\n                        </div>\\n\\n                        <!--Info Column-->\\n                        <div class="info-column col-md-4 col-sm-6 col-xs-12">\\n                        \\t<div class="inner-box">\\n                            \\t<div class="icon"><span class="flaticon-note"></span></div>\\n                                <h4>Send  Mail </h4>\\n                                <div class="text">homestate@gmail.com</div>\\n                            </div>\\n                        </div>\\n\\n                        <!--Info Column-->\\n                        <div class="info-column col-md-4 col-sm-6 col-xs-12">\\n                        \\t<div class="inner-box">\\n                            \\t<div class="icon"><span class="flaticon-technology-2"></span></div>\\n                                <h4>Call us</h4>\\n                                <div class="text">320 4582 100</div>\\n                            </div>\\n                        </div>\\n\\n                    </div>\\n                </div>\\n            </div>\\n\\n        </div>\\n    </section>\\n\', escape=False)\n    response.write(\'\\n  \', escape=False)\n    pass\nresponse.write(\'\\n\\n\', escape=False)\nresponse.write(\'<!--Main Footer-->\\n<footer class="main-footer">\\n    <!--Footer Bottom-->\\n  <div class="footer-bottom">\\n            <!--Copyright-->\\n            <div class="copyright text-center social-links">\\n              <a href="#" class="facebook img-circle"><span class="fa fa-facebook-f"></span></a>\\n              <a href="#" class="twitter img-circle"><span class="fa fa-twitter"></span></a>\\n              <a href="#" class="google-plus img-circle"><span class="fa fa-google-plus"></span></a>\\n              <a href="#" class="linkedin img-circle"><span class="fa fa-pinterest-p"></span></a>\\n              <a href="#" class="linkedin img-circle"><span class="fa fa-instagram"></span></a></div>\\n            <div class="copyright text-center">Paradise Hotel 2016 &copy; </div>\\n    </div>\\n\\n</footer>\\n\\n\\n</div>\\n<!--End pagewrapper-->\\n\\n<!--Scroll to top-->\\n<div class="scroll-to-top scroll-to-target" data-target=".main-header"><span class="icon flaticon-building"></span></div>\\n\\n\\n<script src="/paradise_hotel/static/js/jquery.js"></script>\\n<script src="/paradise_hotel/static/js/bootstrap.min.js"></script>\\n<script src="/paradise_hotel/static/js/revolution.min.js"></script>\\n<script src="/paradise_hotel/static/js/jquery.fancybox.pack.js"></script>\\n<script src="/paradise_hotel/static/js/isotope.js"></script>\\n<script src="/paradise_hotel/static/js/owl.js"></script>\\n<!--Locations Map JS-->\\n<script src="http://maps.google.com/maps/api/js?v=3"></script>\\n<script src="/paradise_hotel/static/js/jquery.gmap.js"></script>\\n<script src="/paradise_hotel/static/js/map-script.js"></script>\\n<!--Locations Map End-->\\n<script src="/paradise_hotel/static/js/wow.js"></script>\\n<script src="/paradise_hotel/static/js/script.js"></script>\\n</body>\\n</html>\\n\', escape=False)\nresponse.write(\'\\n\', escape=False)'
p7
sS'snapshot'
p8
(dp9
S'exception'
p10
(dp11
S'__hash__'
p12
S"<method-wrapper '__hash__' of exceptions.NameError object>"
p13
sS'__setattr__'
p14
S"<method-wrapper '__setattr__' of exceptions.NameError object>"
p15
sS'__reduce_ex__'
p16
S'<built-in method __reduce_ex__ of exceptions.NameError object>'
p17
sS'__getslice__'
p18
S"<method-wrapper '__getslice__' of exceptions.NameError object>"
p19
sS'__getitem__'
p20
S"<method-wrapper '__getitem__' of exceptions.NameError object>"
p21
sS'__setstate__'
p22
S'<built-in method __setstate__ of exceptions.NameError object>'
p23
sS'__reduce__'
p24
S'<built-in method __reduce__ of exceptions.NameError object>'
p25
sS'__str__'
p26
S"<method-wrapper '__str__' of exceptions.NameError object>"
p27
sS'__format__'
p28
S'<built-in method __format__ of exceptions.NameError object>'
p29
sS'__getattribute__'
p30
S"<method-wrapper '__getattribute__' of exceptions.NameError object>"
p31
sS'__class__'
p32
S"<type 'exceptions.NameError'>"
p33
sS'__unicode__'
p34
S'<built-in method __unicode__ of exceptions.NameError object>'
p35
sS'__delattr__'
p36
S"<method-wrapper '__delattr__' of exceptions.NameError object>"
p37
sS'__subclasshook__'
p38
S'<built-in method __subclasshook__ of type object>'
p39
sS'__repr__'
p40
S"<method-wrapper '__repr__' of exceptions.NameError object>"
p41
sS'args'
p42
S'("name \'user\' is not defined",)'
p43
sS'__dict__'
p44
S'{}'
p45
sS'__sizeof__'
p46
S'<built-in method __sizeof__ of exceptions.NameError object>'
p47
sS'__doc__'
p48
S"'Name not found globally.'"
p49
sS'__init__'
p50
S"<method-wrapper '__init__' of exceptions.NameError object>"
p51
sS'__new__'
p52
S'<built-in method __new__ of type object>'
p53
ssS'evalue'
p54
S"name 'user' is not defined"
p55
sS'request'
p56
cgluon.html
XML_unpickle
p57
(S'sx]\x00\x00<div><table><tr><td style="font-weight:bold;vertical-align:top;">ajax</td><td style="vertical-align:top;">:</td><td><div>False</div></td></tr><tr><td style="font-weight:bold;vertical-align:top;">application</td><td style="vertical-align:top;">:</td><td><div>paradise_hotel</div></td></tr><tr><td style="font-weight:bold;vertical-align:top;">args</td><td style="vertical-align:top;">:</td><td><div><table></table></div></td></tr><tr><td style="font-weight:bold;vertical-align:top;">cid</td><td style="vertical-align:top;">:</td><td><div>None</div></td></tr><tr><td style="font-weight:bold;vertical-align:top;">client</td><td style="vertical-align:top;">:</td><td><div>127.0.0.1</div></td></tr><tr><td style="font-weight:bold;vertical-align:top;">controller</td><td style="vertical-align:top;">:</td><td><div>default</div></td></tr><tr><td style="font-weight:bold;vertical-align:top;">cookies</td><td style="vertical-align:top;">:</td><td><div><table><tr><td style="font-weight:bold;vertical-align:top;">session_id_admin</td><td style="vertical-align:top;">:</td><td><div>127.0.0.1-cf99ead7-861e-4623-8b75-d58fccc8efad<table><tr><td style="font-weight:bold;vertical-align:top;">comment</td><td style="vertical-align:top;">:</td><td><div></div></td></tr><tr><td style="font-weight:bold;vertical-align:top;">domain</td><td style="vertical-align:top;">:</td><td><div></div></td></tr><tr><td style="font-weight:bold;vertical-align:top;">expires</td><td style="vertical-align:top;">:</td><td><div></div></td></tr><tr><td style="font-weight:bold;vertical-align:top;">httponly</td><td style="vertical-align:top;">:</td><td><div></div></td></tr><tr><td style="font-weight:bold;vertical-align:top;">max-age</td><td style="vertical-align:top;">:</td><td><div></div></td></tr><tr><td style="font-weight:bold;vertical-align:top;">path</td><td style="vertical-align:top;">:</td><td><div></div></td></tr><tr><td style="font-weight:bold;vertical-align:top;">secure</td><td style="vertical-align:top;">:</td><td><div></div></td></tr><tr><td style="font-weight:bold;vertical-align:top;">version</td><td style="vertical-align:top;">:</td><td><div></div></td></tr></table></div></td></tr><tr><td style="font-weight:bold;vertical-align:top;">session_id_paradise_hotel</td><td style="vertical-align:top;">:</td><td><div>127.0.0.1-8d5a3fd5-2747-47c7-a1b9-a462dec62366<table><tr><td style="font-weight:bold;vertical-align:top;">comment</td><td style="vertical-align:top;">:</td><td><div></div></td></tr><tr><td style="font-weight:bold;vertical-align:top;">domain</td><td style="vertical-align:top;">:</td><td><div></div></td></tr><tr><td style="font-weight:bold;vertical-align:top;">expires</td><td style="vertical-align:top;">:</td><td><div></div></td></tr><tr><td style="font-weight:bold;vertical-align:top;">httponly</td><td style="vertical-align:top;">:</td><td><div></div></td></tr><tr><td style="font-weight:bold;vertical-align:top;">max-age</td><td style="vertical-align:top;">:</td><td><div></div></td></tr><tr><td style="font-weight:bold;vertical-align:top;">path</td><td style="vertical-align:top;">:</td><td><div></div></td></tr><tr><td style="font-weight:bold;vertical-align:top;">secure</td><td style="vertical-align:top;">:</td><td><div></div></td></tr><tr><td style="font-weight:bold;vertical-align:top;">version</td><td style="vertical-align:top;">:</td><td><div></div></td></tr></table></div></td></tr></table></div></td></tr><tr><td style="font-weight:bold;vertical-align:top;">env</td><td style="vertical-align:top;">:</td><td><div><table><tr><td style="font-weight:bold;vertical-align:top;">HTTP_ACCEPT</td><td style="vertical-align:top;">:</td><td><div>text/html,application/xhtml+xml,application/xml;q=0.9,image/webp,*/*;q=0.8</div></td></tr><tr><td style="font-weight:bold;vertical-align:top;">HTTP_ACCEPT_ENCODING</td><td style="vertical-align:top;">:</td><td><div>gzip, deflate, sdch, br</div></td></tr><tr><td style="font-weight:bold;vertical-align:top;">HTTP_ACCEPT_LANGUAGE</td><td style="vertical-align:top;">:</td><td><div>tr-TR,tr;q=0.8,en-US;q=0.6,en;q=0.4</div></td></tr><tr><td style="font-weight:bold;vertical-align:top;">HTTP_CACHE_CONTROL</td><td style="vertical-align:top;">:</td><td><div>max-age=0</div></td></tr><tr><td style="font-weight:bold;vertical-align:top;">HTTP_CONNECTION</td><td style="vertical-align:top;">:</td><td><div>keep-alive</div></td></tr><tr><td style="font-weight:bold;vertical-align:top;">HTTP_COOKIE</td><td style="vertical-align:top;">:</td><td><div>session_id_admin=127.0.0.1-cf99ead7-861e-4623-8b75-d58fccc8efad; session_id_paradise_hotel=127.0.0.1-8d5a3fd5-2747-47c7-a1b9-a462dec62366</div></td></tr><tr><td style="font-weight:bold;vertical-align:top;">HTTP_DNT</td><td style="vertical-align:top;">:</td><td><div>1</div></td></tr><tr><td style="font-weight:bold;vertical-align:top;">HTTP_HOST</td><td style="vertical-align:top;">:</td><td><div>127.0.0.1:8000</div></td></tr><tr><td style="font-weight:bold;vertical-align:top;">HTTP_REFERER</td><td style="vertical-align:top;">:</td><td><div>http://127.0.0.1:8000/paradise_hotel/user/login</div></td></tr><tr><td style="font-weight:bold;vertical-align:top;">HTTP_UPGRADE_INSECURE_REQUESTS</td><td style="vertical-align:top;">:</td><td><div>1</div></td></tr><tr><td style="font-weight:bold;vertical-align:top;">HTTP_USER_AGENT</td><td style="vertical-align:top;">:</td><td><div>Mozilla/5.0 (Windows NT 10.0; Win64; x64) AppleWebKit/537.36 (KHTML, like Gecko) Chrome/55.0.2883.87 Safari/537.36</div></td></tr><tr><td style="font-weight:bold;vertical-align:top;">PATH_INFO</td><td style="vertical-align:top;">:</td><td><div>/paradise_hotel/default/index</div></td></tr><tr><td style="font-weight:bold;vertical-align:top;">QUERY_STRING</td><td style="vertical-align:top;">:</td><td><div></div></td></tr><tr><td style="font-weight:bold;vertical-align:top;">REMOTE_ADDR</td><td style="vertical-align:top;">:</td><td><div>127.0.0.1</div></td></tr><tr><td style="font-weight:bold;vertical-align:top;">REMOTE_PORT</td><td style="vertical-align:top;">:</td><td><div>60402</div></td></tr><tr><td style="font-weight:bold;vertical-align:top;">REQUEST_METHOD</td><td style="vertical-align:top;">:</td><td><div>GET</div></td></tr><tr><td style="font-weight:bold;vertical-align:top;">SCRIPT_NAME</td><td style="vertical-align:top;">:</td><td><div></div></td></tr><tr><td style="font-weight:bold;vertical-align:top;">SERVER_NAME</td><td style="vertical-align:top;">:</td><td><div>OMERF-PC</div></td></tr><tr><td style="font-weight:bold;vertical-align:top;">SERVER_PORT</td><td style="vertical-align:top;">:</td><td><div>8000</div></td></tr><tr><td style="font-weight:bold;vertical-align:top;">SERVER_PROTOCOL</td><td style="vertical-align:top;">:</td><td><div>HTTP/1.1</div></td></tr><tr><td style="font-weight:bold;vertical-align:top;">SERVER_SOFTWARE</td><td style="vertical-align:top;">:</td><td><div>Rocket 1.2.6</div></td></tr><tr><td style="font-weight:bold;vertical-align:top;">app_folders</td><td style="vertical-align:top;">:</td><td><div>set([&#x27;C:\\\\Users\\\\omerf\\\\Desktop\\\\Web\\\\web2py\\\\applications\\\\welcome\\\\&#x27;, &#x27;C:\\\\Users\\\\omerf\\\\Desktop\\\\Web\\\\web2py\\\\applications\\\\paradise_hotel\\\\&#x27;, &#x27;C:\\\\Users\\\\omerf\\\\Desktop\\\\Web\\\\web2py\\\\applications\\\\week12\\\\&#x27;, &#x27;C:\\\\Users\\\\omerf\\\\Desktop\\\\Web\\\\web2py\\\\applications\\\\admin\\\\&#x27;])</div></td></tr><tr><td style="font-weight:bold;vertical-align:top;">applications_parent</td><td style="vertical-align:top;">:</td><td><div>C:\\Users\\omerf\\Desktop\\Web\\web2py</div></td></tr><tr><td style="font-weight:bold;vertical-align:top;">cmd_args</td><td style="vertical-align:top;">:</td><td><div><table></table></div></td></tr><tr><td style="font-weight:bold;vertical-align:top;">cmd_options</td><td style="vertical-align:top;">:</td><td><div>&lt;Values at 0x2d92cd8: {&#x27;verbose&#x27;: False, &#x27;ip&#x27;: &#x27;127.0.0.1&#x27;, &#x27;debuglevel&#x27;: 30, &#x27;with_scheduler&#x27;: False, &#x27;shutdown_timeout&#x27;: 5, &#x27;taskbar&#x27;: False, &#x27;with_coverage&#x27;: False, &#x27;pid_filename&#x27;: &#x27;httpserver.pid&#x27;, &#x27;maxthreads&#x27;: None, &#x27;softcron&#x27;: False, &#x27;server_name&#x27;: &#x27;OMERF-PC&#x27;, &#x27;bpython&#x27;: False, &#x27;nogui&#x27;: False, &#x27;port&#x27;: 8000, &#x27;print_errors&#x27;: False, &#x27;extcron&#x27;: False, &#x27;runcron&#x27;: False, &#x27;run_system_tests&#x27;: False, &#x27;test&#x27;: None, &#x27;folder&#x27;: &#x27;C:\\\\Users\\\\omerf\\\\Desktop\\\\Web\\\\web2py&#x27;, &#x27;config&#x27;: &#x27;&#x27;, &#x27;minthreads&#x27;: None, &#x27;shell&#x27;: None, &#x27;run&#x27;: &#x27;&#x27;, &#x27;log_filename&#x27;: &#x27;httpserver.log&#x27;, &#x27;profiler_dir&#x27;: None, &#x27;args&#x27;: [&#x27;&#x27;], &#x27;socket_timeout&#x27;: 5, &#x27;ssl_ca_certificate&#x27;: None, &#x27;scheduler&#x27;: None, &#x27;interfaces&#x27;: None, &#x27;ssl_private_key&#x27;: &#x27;&#x27;, &#x27;gae&#x27;: None, &#x27;password&#x27;: &#x27;******&#x27;, &#x27;request_queue_size&#x27;: 5, &#x27;ssl_certificate&#x27;: &#x27;&#x27;, &#x27;cronjob&#x27;: False, &#x27;numthreads&#x27;: None, &#x27;quiet&#x27;: False, &#x27;import_models&#x27;: False, &#x27;timeout&#x27;: 10, &#x27;plain&#x27;: False, &#x27;nobanner&#x27;: False}&gt;</div></td></tr><tr><td style="font-weight:bold;vertical-align:top;">db_sessions</td><td style="vertical-align:top;">:</td><td><div>set([])</div></td></tr><tr><td style="font-weight:bold;vertical-align:top;">debugging</td><td style="vertical-align:top;">:</td><td><div>False</div></td></tr><tr><td style="font-weight:bold;vertical-align:top;">gluon_parent</td><td style="vertical-align:top;">:</td><td><div>C:\\Users\\omerf\\Desktop\\Web\\web2py</div></td></tr><tr><td style="font-weight:bold;vertical-align:top;">http_accept</td><td style="vertical-align:top;">:</td><td><div>text/html,application/xhtml+xml,application/xml;q=0.9,image/webp,*/*;q=0.8</div></td></tr><tr><td style="font-weight:bold;vertical-align:top;">http_accept_encoding</td><td style="vertical-align:top;">:</td><td><div>gzip, deflate, sdch, br</div></td></tr><tr><td style="font-weight:bold;vertical-align:top;">http_accept_language</td><td style="vertical-align:top;">:</td><td><div>tr-TR,tr;q=0.8,en-US;q=0.6,en;q=0.4</div></td></tr><tr><td style="font-weight:bold;vertical-align:top;">http_cache_control</td><td style="vertical-align:top;">:</td><td><div>max-age=0</div></td></tr><tr><td style="font-weight:bold;vertical-align:top;">http_connection</td><td style="vertical-align:top;">:</td><td><div>keep-alive</div></td></tr><tr><td style="font-weight:bold;vertical-align:top;">http_cookie</td><td style="vertical-align:top;">:</td><td><div>session_id_admin=127.0.0.1-cf99ead7-861e-4623-8b75-d58fccc8efad; session_id_paradise_hotel=127.0.0.1-8d5a3fd5-2747-47c7-a1b9-a462dec62366</div></td></tr><tr><td style="font-weight:bold;vertical-align:top;">http_dnt</td><td style="vertical-align:top;">:</td><td><div>1</div></td></tr><tr><td style="font-weight:bold;vertical-align:top;">http_host</td><td style="vertical-align:top;">:</td><td><div>127.0.0.1:8000</div></td></tr><tr><td style="font-weight:bold;vertical-align:top;">http_referer</td><td style="vertical-align:top;">:</td><td><div>http://127.0.0.1:8000/paradise_hotel/user/login</div></td></tr><tr><td style="font-weight:bold;vertical-align:top;">http_upgrade_insecure_requests</td><td style="vertical-align:top;">:</td><td><div>1</div></td></tr><tr><td style="font-weight:bold;vertical-align:top;">http_user_agent</td><td style="vertical-align:top;">:</td><td><div>Mozilla/5.0 (Windows NT 10.0; Win64; x64) AppleWebKit/537.36 (KHTML, like Gecko) Chrome/55.0.2883.87 Safari/537.36</div></td></tr><tr><td style="font-weight:bold;vertical-align:top;">is_jython</td><td style="vertical-align:top;">:</td><td><div>False</div></td></tr><tr><td style="font-weight:bold;vertical-align:top;">is_pypy</td><td style="vertical-align:top;">:</td><td><div>False</div></td></tr><tr><td style="font-weight:bold;vertical-align:top;">is_source</td><td style="vertical-align:top;">:</td><td><div>False</div></td></tr><tr><td style="font-weight:bold;vertical-align:top;">local_hosts</td><td style="vertical-align:top;">:</td><td><div><table><tr><td><div>169.254.217.175</div></td></tr><tr><td><div>fe80::587f:ee15:38b8:54c2%15</div></td></tr><tr><td><div>fe80::2182:71e8:e91c:decf%17</div></td></tr><tr><td><div>192.168.1.101</div></td></tr><tr><td><div>::ffff:127.0.0.1</div></td></tr><tr><td><div>::1</div></td></tr><tr><td><div>192.168.200.1</div></td></tr><tr><td><div>192.168.204.2</div></td></tr><tr><td><div>fe80::8026:209c:c3bd:c7c7%14</div></td></tr><tr><td><div>169.254.177.77</div></td></tr><tr><td><div>fe80::5511:d8ff:d5f:b14d%7</div></td></tr><tr><td><div>fe80::71fc:18ad:f78a:d9af%16</div></td></tr><tr><td><div>127.0.0.1</div></td></tr><tr><td><div>OMERF-PC</div></td></tr></table></div></td></tr><tr><td style="font-weight:bold;vertical-align:top;">path_info</td><td style="vertical-align:top;">:</td><td><div>/paradise_hotel/default/index</div></td></tr><tr><td style="font-weight:bold;vertical-align:top;">query_string</td><td style="vertical-align:top;">:</td><td><div></div></td></tr><tr><td style="font-weight:bold;vertical-align:top;">remote_addr</td><td style="vertical-align:top;">:</td><td><div>127.0.0.1</div></td></tr><tr><td style="font-weight:bold;vertical-align:top;">remote_port</td><td style="vertical-align:top;">:</td><td><div>60402</div></td></tr><tr><td style="font-weight:bold;vertical-align:top;">request_method</td><td style="vertical-align:top;">:</td><td><div>GET</div></td></tr><tr><td style="font-weight:bold;vertical-align:top;">request_uri</td><td style="vertical-align:top;">:</td><td><div>/paradise_hotel/default/index</div></td></tr><tr><td style="font-weight:bold;vertical-align:top;">script_name</td><td style="vertical-align:top;">:</td><td><div></div></td></tr><tr><td style="font-weight:bold;vertical-align:top;">server_name</td><td style="vertical-align:top;">:</td><td><div>OMERF-PC</div></td></tr><tr><td style="font-weight:bold;vertical-align:top;">server_port</td><td style="vertical-align:top;">:</td><td><div>8000</div></td></tr><tr><td style="font-weight:bold;vertical-align:top;">server_protocol</td><td style="vertical-align:top;">:</td><td><div>HTTP/1.1</div></td></tr><tr><td style="font-weight:bold;vertical-align:top;">server_software</td><td style="vertical-align:top;">:</td><td><div>Rocket 1.2.6</div></td></tr><tr><td style="font-weight:bold;vertical-align:top;">web2py_path</td><td style="vertical-align:top;">:</td><td><div>C:\\Users\\omerf\\Desktop\\Web\\web2py</div></td></tr><tr><td style="font-weight:bold;vertical-align:top;">web2py_version</td><td style="vertical-align:top;">:</td><td><div>2.14.6-stable+timestamp.2016.05.10.00.21.47</div></td></tr><tr><td style="font-weight:bold;vertical-align:top;">wsgi.errors</td><td style="vertical-align:top;">:</td><td><div>&lt;open file &#x27;&lt;stderr&gt;&#x27;, mode &#x27;w&#x27; at 0x0218D0D0&gt;</div></td></tr><tr><td style="font-weight:bold;vertical-align:top;">wsgi.file_wrapper</td><td style="vertical-align:top;">:</td><td><div>&lt;class wsgiref.util.FileWrapper at 0x02D0F298&gt;</div></td></tr><tr><td style="font-weight:bold;vertical-align:top;">wsgi.input</td><td style="vertical-align:top;">:</td><td><div>&lt;socket._fileobject object at 0x082F8870&gt;</div></td></tr><tr><td style="font-weight:bold;vertical-align:top;">wsgi.multiprocess</td><td style="vertical-align:top;">:</td><td><div>False</div></td></tr><tr><td style="font-weight:bold;vertical-align:top;">wsgi.multithread</td><td style="vertical-align:top;">:</td><td><div>True</div></td></tr><tr><td style="font-weight:bold;vertical-align:top;">wsgi.run_once</td><td style="vertical-align:top;">:</td><td><div>False</div></td></tr><tr><td style="font-weight:bold;vertical-align:top;">wsgi.url_scheme</td><td style="vertical-align:top;">:</td><td><div>http</div></td></tr><tr><td style="font-weight:bold;vertical-align:top;">wsgi.version</td><td style="vertical-align:top;">:</td><td><div><table><tr><td><div>1</div></td></tr><tr><td><div>0</div></td></tr></table></div></td></tr><tr><td style="font-weight:bold;vertical-align:top;">wsgi_errors</td><td style="vertical-align:top;">:</td><td><div>&lt;open file &#x27;&lt;stderr&gt;&#x27;, mode &#x27;w&#x27; at 0x0218D0D0&gt;</div></td></tr><tr><td style="font-weight:bold;vertical-align:top;">wsgi_file_wrapper</td><td style="vertical-align:top;">:</td><td><div>&lt;class wsgiref.util.FileWrapper at 0x02D0F298&gt;</div></td></tr><tr><td style="font-weight:bold;vertical-align:top;">wsgi_input</td><td style="vertical-align:top;">:</td><td><div>&lt;socket._fileobject object at 0x082F8870&gt;</div></td></tr><tr><td style="font-weight:bold;vertical-align:top;">wsgi_multiprocess</td><td style="vertical-align:top;">:</td><td><div>False</div></td></tr><tr><td style="font-weight:bold;vertical-align:top;">wsgi_multithread</td><td style="vertical-align:top;">:</td><td><div>True</div></td></tr><tr><td style="font-weight:bold;vertical-align:top;">wsgi_run_once</td><td style="vertical-align:top;">:</td><td><div>False</div></td></tr><tr><td style="font-weight:bold;vertical-align:top;">wsgi_url_scheme</td><td style="vertical-align:top;">:</td><td><div>http</div></td></tr><tr><td style="font-weight:bold;vertical-align:top;">wsgi_version</td><td style="vertical-align:top;">:</td><td><div><table><tr><td><div>1</div></td></tr><tr><td><div>0</div></td></tr></table></div></td></tr></table></div></td></tr><tr><td style="font-weight:bold;vertical-align:top;">extension</td><td style="vertical-align:top;">:</td><td><div>html</div></td></tr><tr><td style="font-weight:bold;vertical-align:top;">folder</td><td style="vertical-align:top;">:</td><td><div>C:\\Users\\omerf\\Desktop\\Web\\web2py\\applications\\paradise_hotel\\</div></td></tr><tr><td style="font-weight:bold;vertical-align:top;">function</td><td style="vertical-align:top;">:</td><td><div>index</div></td></tr><tr><td style="font-weight:bold;vertical-align:top;">global_settings</td><td style="vertical-align:top;">:</td><td><div><table><tr><td style="font-weight:bold;vertical-align:top;">app_folders</td><td style="vertical-align:top;">:</td><td><div>set([&#x27;C:\\\\Users\\\\omerf\\\\Desktop\\\\Web\\\\web2py\\\\applications\\\\welcome\\\\&#x27;, &#x27;C:\\\\Users\\\\omerf\\\\Desktop\\\\Web\\\\web2py\\\\applications\\\\paradise_hotel\\\\&#x27;, &#x27;C:\\\\Users\\\\omerf\\\\Desktop\\\\Web\\\\web2py\\\\applications\\\\week12\\\\&#x27;, &#x27;C:\\\\Users\\\\omerf\\\\Desktop\\\\Web\\\\web2py\\\\applications\\\\admin\\\\&#x27;])</div></td></tr><tr><td style="font-weight:bold;vertical-align:top;">applications_parent</td><td style="vertical-align:top;">:</td><td><div>C:\\Users\\omerf\\Desktop\\Web\\web2py</div></td></tr><tr><td style="font-weight:bold;vertical-align:top;">cmd_args</td><td style="vertical-align:top;">:</td><td><div><table></table></div></td></tr><tr><td style="font-weight:bold;vertical-align:top;">cmd_options</td><td style="vertical-align:top;">:</td><td><div>&lt;Values at 0x2d92cd8: {&#x27;verbose&#x27;: False, &#x27;ip&#x27;: &#x27;127.0.0.1&#x27;, &#x27;debuglevel&#x27;: 30, &#x27;with_scheduler&#x27;: False, &#x27;shutdown_timeout&#x27;: 5, &#x27;taskbar&#x27;: False, &#x27;with_coverage&#x27;: False, &#x27;pid_filename&#x27;: &#x27;httpserver.pid&#x27;, &#x27;maxthreads&#x27;: None, &#x27;softcron&#x27;: False, &#x27;server_name&#x27;: &#x27;OMERF-PC&#x27;, &#x27;bpython&#x27;: False, &#x27;nogui&#x27;: False, &#x27;port&#x27;: 8000, &#x27;print_errors&#x27;: False, &#x27;extcron&#x27;: False, &#x27;runcron&#x27;: False, &#x27;run_system_tests&#x27;: False, &#x27;test&#x27;: None, &#x27;folder&#x27;: &#x27;C:\\\\Users\\\\omerf\\\\Desktop\\\\Web\\\\web2py&#x27;, &#x27;config&#x27;: &#x27;&#x27;, &#x27;minthreads&#x27;: None, &#x27;shell&#x27;: None, &#x27;run&#x27;: &#x27;&#x27;, &#x27;log_filename&#x27;: &#x27;httpserver.log&#x27;, &#x27;profiler_dir&#x27;: None, &#x27;args&#x27;: [&#x27;&#x27;], &#x27;socket_timeout&#x27;: 5, &#x27;ssl_ca_certificate&#x27;: None, &#x27;scheduler&#x27;: None, &#x27;interfaces&#x27;: None, &#x27;ssl_private_key&#x27;: &#x27;&#x27;, &#x27;gae&#x27;: None, &#x27;password&#x27;: &#x27;******&#x27;, &#x27;request_queue_size&#x27;: 5, &#x27;ssl_certificate&#x27;: &#x27;&#x27;, &#x27;cronjob&#x27;: False, &#x27;numthreads&#x27;: None, &#x27;quiet&#x27;: False, &#x27;import_models&#x27;: False, &#x27;timeout&#x27;: 10, &#x27;plain&#x27;: False, &#x27;nobanner&#x27;: False}&gt;</div></td></tr><tr><td style="font-weight:bold;vertical-align:top;">db_sessions</td><td style="vertical-align:top;">:</td><td><div>set([])</div></td></tr><tr><td style="font-weight:bold;vertical-align:top;">debugging</td><td style="vertical-align:top;">:</td><td><div>False</div></td></tr><tr><td style="font-weight:bold;vertical-align:top;">gluon_parent</td><td style="vertical-align:top;">:</td><td><div>C:\\Users\\omerf\\Desktop\\Web\\web2py</div></td></tr><tr><td style="font-weight:bold;vertical-align:top;">is_jython</td><td style="vertical-align:top;">:</td><td><div>False</div></td></tr><tr><td style="font-weight:bold;vertical-align:top;">is_pypy</td><td style="vertical-align:top;">:</td><td><div>False</div></td></tr><tr><td style="font-weight:bold;vertical-align:top;">is_source</td><td style="vertical-align:top;">:</td><td><div>False</div></td></tr><tr><td style="font-weight:bold;vertical-align:top;">local_hosts</td><td style="vertical-align:top;">:</td><td><div><table><tr><td><div>169.254.217.175</div></td></tr><tr><td><div>fe80::587f:ee15:38b8:54c2%15</div></td></tr><tr><td><div>fe80::2182:71e8:e91c:decf%17</div></td></tr><tr><td><div>192.168.1.101</div></td></tr><tr><td><div>::ffff:127.0.0.1</div></td></tr><tr><td><div>::1</div></td></tr><tr><td><div>192.168.200.1</div></td></tr><tr><td><div>192.168.204.2</div></td></tr><tr><td><div>fe80::8026:209c:c3bd:c7c7%14</div></td></tr><tr><td><div>169.254.177.77</div></td></tr><tr><td><div>fe80::5511:d8ff:d5f:b14d%7</div></td></tr><tr><td><div>fe80::71fc:18ad:f78a:d9af%16</div></td></tr><tr><td><div>127.0.0.1</div></td></tr><tr><td><div>OMERF-PC</div></td></tr></table></div></td></tr><tr><td style="font-weight:bold;vertical-align:top;">web2py_version</td><td style="vertical-align:top;">:</td><td><div>2.14.6-stable+timestamp.2016.05.10.00.21.47</div></td></tr></table></div></td></tr><tr><td style="font-weight:bold;vertical-align:top;">is_https</td><td style="vertical-align:top;">:</td><td><div>False</div></td></tr><tr><td style="font-weight:bold;vertical-align:top;">is_local</td><td style="vertical-align:top;">:</td><td><div>True</div></td></tr><tr><td style="font-weight:bold;vertical-align:top;">is_restful</td><td style="vertical-align:top;">:</td><td><div>False</div></td></tr><tr><td style="font-weight:bold;vertical-align:top;">is_scheduler</td><td style="vertical-align:top;">:</td><td><div>False</div></td></tr><tr><td style="font-weight:bold;vertical-align:top;">is_shell</td><td style="vertical-align:top;">:</td><td><div>False</div></td></tr><tr><td style="font-weight:bold;vertical-align:top;">now</td><td style="vertical-align:top;">:</td><td><div>datetime.datetime(2016, 12, 29, 20, 5, 58, 912000)</div></td></tr><tr><td style="font-weight:bold;vertical-align:top;">raw_args</td><td style="vertical-align:top;">:</td><td><div></div></td></tr><tr><td style="font-weight:bold;vertical-align:top;">raw_extension</td><td style="vertical-align:top;">:</td><td><div>None</div></td></tr><tr><td style="font-weight:bold;vertical-align:top;">url</td><td style="vertical-align:top;">:</td><td><div>/paradise_hotel/default/index</div></td></tr><tr><td style="font-weight:bold;vertical-align:top;">utcnow</td><td style="vertical-align:top;">:</td><td><div>datetime.datetime(2016, 12, 29, 17, 5, 58, 912000)</div></td></tr><tr><td style="font-weight:bold;vertical-align:top;">wsgi</td><td style="vertical-align:top;">:</td><td><div>&lt;gluon.main.LazyWSGI object at 0x08DB9390&gt;</div></td></tr></table></div>'
tRp58
sS'frames'
p59
(lp60
(dp61
S'file'
p62
S'C:\\Users\\omerf\\Desktop\\Web\\web2py\\gluon\\restricted.py'
p63
sS'dump'
p64
(dp65
S'environment'
p66
S"{'A': <class 'gluon.html.A'>, 'ANY_OF': <class 'gluon.validators.ANY_OF'>, 'ASSIGNJS': <function ASSIGNJS>, 'AppConfig': <function AppConfig>, 'Auth': <class 'gluon.tools.Auth'>, 'B': <class 'gluon.html.B'>, 'BEAUTIFY': <class 'gluon.html.BEAUTIFY'>, 'BODY': <class 'gluon.html.BODY'>, 'BR': <class 'gluon.html.BR'>, 'BUTTON': <class 'gluon.html.BUTTON'>, ...}"
p67
sS'ccode'
p68
S'<code object <module> at 089BF410, file "C:\\User...paradise_hotel\\views\\default/index.html", line 1>'
p69
ssS'lnum'
p70
I227
sS'lines'
p71
(dp72
I224
S'            ccode = code'
p73
sI225
S'        else:'
p74
sI226
S'            ccode = compile2(code, layer)'
p75
sI227
S'        exec ccode in environment'
p76
sI228
S'    except HTTP:'
p77
sI229
S'        raise'
p78
sI230
S'    except RestrictedError:'
p79
sI231
S'        # do not encapsulate (obfuscate) the original RestrictedError'
p80
sI222
S'    try:'
p81
sI223
S'        if isinstance(code, types.CodeType):'
p82
ssS'call'
p83
S'(code=\'title = globals().get("title", "")\\nresponse.writ... escape=False)\\nresponse.write(\\\'\\\\n\\\', escape=False)\', environment={\'A\': <class \'gluon.html.A\'>, \'ANY_OF\': <class \'gluon.validators.ANY_OF\'>, \'ASSIGNJS\': <function ASSIGNJS>, \'AppConfig\': <function AppConfig>, \'Auth\': <class \'gluon.tools.Auth\'>, \'B\': <class \'gluon.html.B\'>, \'BEAUTIFY\': <class \'gluon.html.BEAUTIFY\'>, \'BODY\': <class \'gluon.html.BODY\'>, \'BR\': <class \'gluon.html.BR\'>, \'BUTTON\': <class \'gluon.html.BUTTON\'>, ...}, layer=r\'C:\\Users\\omerf\\Desktop\\Web\\web2py\\applications\\paradise_hotel\\views\\default/index.html\')'
p84
sS'func'
p85
S'restricted'
p86
sa(dp87
g62
S'C:\\Users\\omerf\\Desktop\\Web\\web2py\\applications\\paradise_hotel\\views\\default\\index.html'
p88
sg64
(dp89
sg70
I26
sg71
(dp90
I32
S"response.write('\\n                    ', escape=False)"
p91
sI33
S'pass'
p92
sI34
S'response.write(\'\\n\\n                </div>\\n            </div>\\n        </div>\\n\\n        <!--Header-Lower-->\\n        <div class="header-lower">\\n        \\t<!--Background Layer-->\\n            <div class="bg-layer"></div>\\n\\n\\n        \\t<div class="auto-container">\\n            \\t<div class="nav-outer clearfix">\\n                    <!-- Main Menu -->\\n                    <nav class="main-menu">\\n                        <div class="navbar-header">\\n                            <!-- Toggle Button -->\\n                            <button type="button" class="navbar-toggle" data-toggle="collapse" data-target=".navbar-collapse">\\n                            <span class="icon-bar"></span>\\n                            <span class="icon-bar"></span>\\n                            <span class="icon-bar"></span>\\n                            </button>\\n                        </div>\\n\', escape=False)'
p93
sI35
S"response.write('\\n', escape=False)"
p94
sI36
S'response.write(\'\\n<div class="navbar-collapse collapse clearfix">\\n    <ul class="navigation clearfix">\\n      \', escape=False)'
p95
sI17
S'            pass'
p96
sI18
S'        pass'
p97
sI19
S'    return output'
p98
sI20
S"response.write('\\n', escape=False)"
p99
sI21
S'response.write(\'<!DOCTYPE html>\\n<html>\\n<head>\\n<meta charset="utf-8">\\n<title>\', escape=False)'
p100
sI22
S'response.write(page_title)'
p101
sI23
S'response.write(\'</title>\\n<!-- Stylesheets -->\\n<link href="/paradise_hotel/static/css/bootstrap.css" rel="stylesheet">\\n<link href="/paradise_hotel/static/css/revolution-slider.css" rel="stylesheet">\\n<link href="/paradise_hotel/static/css/style.css" rel="stylesheet">\\n<!-- Responsive -->\\n<meta http-equiv="X-UA-Compatible" content="IE=edge">\\n<meta name="viewport" content="width=device-width, initial-scale=1.0, maximum-scale=1.0, user-scalable=0">\\n<link href="/paradise_hotel/static/css/responsive.css" rel="stylesheet">\\n<!--[if lt IE 9]><script src="http://html5shim.googlecode.com/svn/trunk/html5.js"></script><![endif]-->\\n<!--[if lt IE 9]><script src="js/respond.js"></script><![endif]-->\\n</head>\\n\\n<body>\\n<div class="page-wrapper">\\n\\n\\n\\n    <!-- Main Header-->\\n    <header class="main-header">\\n\\n    \\t<!--Header-Upper-->\\n        <div class="header-upper">\\n        \\t<div class="auto-container">\\n            \\t<div class="clearfix">\\n\\n                \\t<div class="pull-left logo-outer">\\n                    \\t<div class="logo"><a href="#"><img src="/paradise_hotel/static/images/logo.jpg" alt="" title="Homestate"></a></div>\\n                    </div>\\n\\n                    <div class="pull-right upper-right clearfix">\\n\\n                        <!--Info Box-->\\n                        <div class="upper-column info-box">\\n                        \\t<div class="icon-box"><span class="flaticon-technology-2"></span></div>\\n                            <ul>\\n                            \\t<li><strong>320 4567 345</strong></li>\\n                                <li><a href="#">info@example.com</a></li>\\n                            </ul>\\n                        </div>\\n\\n                        <!--Info Box-->\\n                        <div class="upper-column info-box">\\n                        \\t<div class="icon-box"><span class="flaticon-location-2"></span></div>\\n                            <ul>\\n                            \\t<li><strong>Stadium Market</strong></li>\\n                                <li>Mirpur Road No  11</li>\\n                            </ul>\\n                        </div>\\n                        \', escape=False)'
p102
sI24
S'if session.user:'
p103
sI25
S'    response.write(\'\\n                        <!--Info Box-->\\n                            <div class="upper-column info-box">\\n                                <ul>\\n                                    <li><strong>Hello Hello \', escape=False)'
p104
sI26
S'    response.write(A(user.Username'
p105
sI27
S'    ))'
p106
sI28
S"    response.write('.</strong></li>\\n                                    <li>Mirpur Road No  11</li>\\n                                </ul>\\n                            </div>\\n                            ', escape=False)"
p107
sI29
S'else:'
p108
sI30
S'    response.write(\'\\n                        <!--Info Box-->\\n                            <div class="upper-column info-box">\\n                                <ul>\\n                                \\t<li><strong>Stadium Market</strong></li>\\n                                    <li>Mirpur Road No  11</li>\\n                                </ul>\\n                            </div>\\n\\n                    </div>\\n                    \', escape=False)'
p109
sI31
S'    pass'
p110
ssg83
S'()'
p111
sg85
S'<module>'
p112
sasS'pyver'
p113
S'Python 2.7.9: C:\\Users\\omerf\\Desktop\\Web\\web2py\\web2py.exe (prefix: )'
p114
sS'session'
p115
g57
(S's\xf7\x06\x00\x00<div><table><tr><td style="font-weight:bold;vertical-align:top;">user</td><td style="vertical-align:top;">:</td><td><div><table><tr><td style="font-weight:bold;vertical-align:top;">Address</td><td style="vertical-align:top;">:</td><td><div>Mu\xc4\x9fla</div></td></tr><tr><td style="font-weight:bold;vertical-align:top;">Email_Address</td><td style="vertical-align:top;">:</td><td><div>oguz@gmail.com</div></td></tr><tr><td style="font-weight:bold;vertical-align:top;">Gender</td><td style="vertical-align:top;">:</td><td><div>Male</div></td></tr><tr><td style="font-weight:bold;vertical-align:top;">Name</td><td style="vertical-align:top;">:</td><td><div>O\xc4\x9fuz</div></td></tr><tr><td style="font-weight:bold;vertical-align:top;">Password</td><td style="vertical-align:top;">:</td><td><div>deneme1</div></td></tr><tr><td style="font-weight:bold;vertical-align:top;">Phone_Number</td><td style="vertical-align:top;">:</td><td><div>8989898989898</div></td></tr><tr><td style="font-weight:bold;vertical-align:top;">Surname</td><td style="vertical-align:top;">:</td><td><div>Alkan</div></td></tr><tr><td style="font-weight:bold;vertical-align:top;">Username</td><td style="vertical-align:top;">:</td><td><div>oguzalkan</div></td></tr><tr><td style="font-weight:bold;vertical-align:top;">delete_record</td><td style="vertical-align:top;">:</td><td><div>&lt;pydal.helpers.classes.RecordDeleter object at 0x08DB9AF0&gt;</div></td></tr><tr><td style="font-weight:bold;vertical-align:top;">id</td><td style="vertical-align:top;">:</td><td><div>2L</div></td></tr><tr><td style="font-weight:bold;vertical-align:top;">update_record</td><td style="vertical-align:top;">:</td><td><div>&lt;pydal.helpers.classes.RecordUpdater object at 0x08DB9DB0&gt;</div></td></tr></table></div></td></tr></table></div>'
tRp116
sS'etype'
p117
S"<type 'exceptions.NameError'>"
p118
sS'date'
p119
S'Thu Dec 29 20:05:59 2016'
p120
sS'response'
p121
g57
(S'sH@\x00\x00<div><table><tr><td style="font-weight:bold;vertical-align:top;">body</td><td style="vertical-align:top;">:</td><td><div>&lt;cStringIO.StringO object at 0x08AC44C0&gt;</div></td></tr><tr><td style="font-weight:bold;vertical-align:top;">cookies</td><td style="vertical-align:top;">:</td><td><div><table><tr><td style="font-weight:bold;vertical-align:top;">session_id_paradise_hotel</td><td style="vertical-align:top;">:</td><td><div>127.0.0.1-8d5a3fd5-2747-47c7-a1b9-a462dec62366<table><tr><td style="font-weight:bold;vertical-align:top;">comment</td><td style="vertical-align:top;">:</td><td><div></div></td></tr><tr><td style="font-weight:bold;vertical-align:top;">domain</td><td style="vertical-align:top;">:</td><td><div></div></td></tr><tr><td style="font-weight:bold;vertical-align:top;">expires</td><td style="vertical-align:top;">:</td><td><div></div></td></tr><tr><td style="font-weight:bold;vertical-align:top;">httponly</td><td style="vertical-align:top;">:</td><td><div></div></td></tr><tr><td style="font-weight:bold;vertical-align:top;">max-age</td><td style="vertical-align:top;">:</td><td><div></div></td></tr><tr><td style="font-weight:bold;vertical-align:top;">path</td><td style="vertical-align:top;">:</td><td><div>/</div></td></tr><tr><td style="font-weight:bold;vertical-align:top;">secure</td><td style="vertical-align:top;">:</td><td><div></div></td></tr><tr><td style="font-weight:bold;vertical-align:top;">version</td><td style="vertical-align:top;">:</td><td><div></div></td></tr></table></div></td></tr></table></div></td></tr><tr><td style="font-weight:bold;vertical-align:top;">delimiters</td><td style="vertical-align:top;">:</td><td><div><table><tr><td><div>{{</div></td></tr><tr><td><div>}}</div></td></tr></table></div></td></tr><tr><td style="font-weight:bold;vertical-align:top;">files</td><td style="vertical-align:top;">:</td><td><div><table></table></div></td></tr><tr><td style="font-weight:bold;vertical-align:top;">flash</td><td style="vertical-align:top;">:</td><td><div></div></td></tr><tr><td style="font-weight:bold;vertical-align:top;">form_label_separator</td><td style="vertical-align:top;">:</td><td><div></div></td></tr><tr><td style="font-weight:bold;vertical-align:top;">formstyle</td><td style="vertical-align:top;">:</td><td><div>bootstrap3_inline</div></td></tr><tr><td style="font-weight:bold;vertical-align:top;">generic_patterns</td><td style="vertical-align:top;">:</td><td><div><table><tr><td><div>*</div></td></tr></table></div></td></tr><tr><td style="font-weight:bold;vertical-align:top;">google_analytics_id</td><td style="vertical-align:top;">:</td><td><div>None</div></td></tr><tr><td style="font-weight:bold;vertical-align:top;">headers</td><td style="vertical-align:top;">:</td><td><div><table><tr><td style="font-weight:bold;vertical-align:top;">X-Powered-By</td><td style="vertical-align:top;">:</td><td><div>web2py</div></td></tr></table></div></td></tr><tr><td style="font-weight:bold;vertical-align:top;">logo</td><td style="vertical-align:top;">:</td><td><div><a class="navbar-brand" href="http://www.web2py.com/" id="web2py-logo"><b>web<span>2</span>py</b>&trade;&nbsp;</a></div></td></tr><tr><td style="font-weight:bold;vertical-align:top;">menu</td><td style="vertical-align:top;">:</td><td><div><table><tr><td><div><table><tr><td><div>Anasayfa</div></td></tr><tr><td><div>False</div></td></tr><tr><td><div>/paradise_hotel/default/index</div></td></tr><tr><td><div><table></table></div></td></tr></table></div></td></tr><tr><td><div><table><tr><td><div>Sitelerim</div></td></tr><tr><td><div>False</div></td></tr><tr><td><div>/admin/default/site</div></td></tr></table></div></td></tr><tr><td><div><table><tr><td><div>Bu Uygulama</div></td></tr><tr><td><div>False</div></td></tr><tr><td><div>#</div></td></tr><tr><td><div><table><tr><td><div><table><tr><td><div>Design</div></td></tr><tr><td><div>False</div></td></tr><tr><td><div>/admin/default/design/paradise_hotel</div></td></tr></table></div></td></tr><tr><td><div><li class="divider"></li></div></td></tr><tr><td><div><table><tr><td><div>Denet\xc3\xa7i</div></td></tr><tr><td><div>False</div></td></tr><tr><td><div>/admin/default/edit/paradise_hotel/controllers/default.py</div></td></tr></table></div></td></tr><tr><td><div><table><tr><td><div>G\xc3\xb6r\xc3\xbcn\xc3\xbcm</div></td></tr><tr><td><div>False</div></td></tr><tr><td><div>/admin/default/edit/paradise_hotel/views/default/index.html</div></td></tr></table></div></td></tr><tr><td><div><table><tr><td><div>DB Modeli</div></td></tr><tr><td><div>False</div></td></tr><tr><td><div>/admin/default/edit/paradise_hotel/models/db.py</div></td></tr></table></div></td></tr><tr><td><div><table><tr><td><div>Model Men\xc3\xbc</div></td></tr><tr><td><div>False</div></td></tr><tr><td><div>/admin/default/edit/paradise_hotel/models/menu.py</div></td></tr></table></div></td></tr><tr><td><div><table><tr><td><div>Config.ini</div></td></tr><tr><td><div>False</div></td></tr><tr><td><div>/admin/default/edit/paradise_hotel/private/appconfig.ini</div></td></tr></table></div></td></tr><tr><td><div><table><tr><td><div>\xc5\x9eablon</div></td></tr><tr><td><div>False</div></td></tr><tr><td><div>/admin/default/edit/paradise_hotel/views/layout.html</div></td></tr></table></div></td></tr><tr><td><div><table><tr><td><div>Stil \xc5\x9eablonu</div></td></tr><tr><td><div>False</div></td></tr><tr><td><div>/admin/default/edit/paradise_hotel/static/css/web2py-bootstrap3.css</div></td></tr></table></div></td></tr><tr><td><div><table><tr><td><div>Veritaban\xc4\xb1</div></td></tr><tr><td><div>False</div></td></tr><tr><td><div>/paradise_hotel/appadmin/index</div></td></tr></table></div></td></tr><tr><td><div><table><tr><td><div>Hatalar</div></td></tr><tr><td><div>False</div></td></tr><tr><td><div>/admin/default/errors/paradise_hotel</div></td></tr></table></div></td></tr><tr><td><div><table><tr><td><div>Hakk\xc4\xb1nda</div></td></tr><tr><td><div>False</div></td></tr><tr><td><div>/admin/default/about/paradise_hotel</div></td></tr></table></div></td></tr></table></div></td></tr></table></div></td></tr><tr><td><div><table><tr><td><div>web2py.com</div></td></tr><tr><td><div>False</div></td></tr><tr><td><div>#</div></td></tr><tr><td><div><table><tr><td><div><table><tr><td><div>\xc4\xb0ndir</div></td></tr><tr><td><div>False</div></td></tr><tr><td><div>http://www.web2py.com/examples/default/download</div></td></tr></table></div></td></tr><tr><td><div><table><tr><td><div>Destek</div></td></tr><tr><td><div>False</div></td></tr><tr><td><div>http://www.web2py.com/examples/default/support</div></td></tr></table></div></td></tr><tr><td><div><table><tr><td><div>Tan\xc4\xb1t\xc4\xb1m</div></td></tr><tr><td><div>False</div></td></tr><tr><td><div>http://web2py.com/demo_admin</div></td></tr></table></div></td></tr><tr><td><div><table><tr><td><div>H\xc4\xb1zl\xc4\xb1 \xc3\x96rnekler</div></td></tr><tr><td><div>False</div></td></tr><tr><td><div>http://web2py.com/examples/default/examples</div></td></tr></table></div></td></tr><tr><td><div><table><tr><td><div>SSS</div></td></tr><tr><td><div>False</div></td></tr><tr><td><div>http://web2py.com/AlterEgo</div></td></tr></table></div></td></tr><tr><td><div><table><tr><td><div>Videolar</div></td></tr><tr><td><div>False</div></td></tr><tr><td><div>http://www.web2py.com/examples/default/videos/</div></td></tr></table></div></td></tr><tr><td><div><table><tr><td><div>\xc3\x9ccretsiz uygulamalar</div></td></tr><tr><td><div>False</div></td></tr><tr><td><div>http://web2py.com/appliances</div></td></tr></table></div></td></tr><tr><td><div><table><tr><td><div>Eklentiler</div></td></tr><tr><td><div>False</div></td></tr><tr><td><div>http://web2py.com/plugins</div></td></tr></table></div></td></tr><tr><td><div><table><tr><td><div>Tarifeler</div></td></tr><tr><td><div>False</div></td></tr><tr><td><div>http://web2pyslices.com/</div></td></tr></table></div></td></tr></table></div></td></tr></table></div></td></tr><tr><td><div><table><tr><td><div>Kitap</div></td></tr><tr><td><div>False</div></td></tr><tr><td><div>#</div></td></tr><tr><td><div><table><tr><td><div><table><tr><td><div>Online book</div></td></tr><tr><td><div>False</div></td></tr><tr><td><div>http://www.web2py.com/book</div></td></tr></table></div></td></tr><tr><td><div><li class="divider"></li></div></td></tr><tr><td><div><table><tr><td><div>\xc3\x96nz\xc3\xb6s</div></td></tr><tr><td><div>False</div></td></tr><tr><td><div>http://www.web2py.com/book/default/chapter/00</div></td></tr></table></div></td></tr><tr><td><div><table><tr><td><div>Giri\xc5\x9f</div></td></tr><tr><td><div>False</div></td></tr><tr><td><div>http://www.web2py.com/book/default/chapter/01</div></td></tr></table></div></td></tr><tr><td><div><table><tr><td><div>Python</div></td></tr><tr><td><div>False</div></td></tr><tr><td><div>http://www.web2py.com/book/default/chapter/02</div></td></tr></table></div></td></tr><tr><td><div><table><tr><td><div>G\xc3\xb6z gezdir</div></td></tr><tr><td><div>False</div></td></tr><tr><td><div>http://www.web2py.com/book/default/chapter/03</div></td></tr></table></div></td></tr><tr><td><div><table><tr><td><div>\xc3\x87ekirdek</div></td></tr><tr><td><div>False</div></td></tr><tr><td><div>http://www.web2py.com/book/default/chapter/04</div></td></tr></table></div></td></tr><tr><td><div><table><tr><td><div>G\xc3\xb6r\xc3\xbcn\xc3\xbcmler</div></td></tr><tr><td><div>False</div></td></tr><tr><td><div>http://www.web2py.com/book/default/chapter/05</div></td></tr></table></div></td></tr><tr><td><div><table><tr><td><div>Veritaban\xc4\xb1</div></td></tr><tr><td><div>False</div></td></tr><tr><td><div>http://www.web2py.com/book/default/chapter/06</div></td></tr></table></div></td></tr><tr><td><div><table><tr><td><div>Bi\xc3\xa7imler ve Do\xc4\x9frulay\xc4\xb1c\xc4\xb1lar</div></td></tr><tr><td><div>False</div></td></tr><tr><td><div>http://www.web2py.com/book/default/chapter/07</div></td></tr></table></div></td></tr><tr><td><div><table><tr><td><div>E-posta ve k\xc4\xb1sa mesaj (SMS)</div></td></tr><tr><td><div>False</div></td></tr><tr><td><div>http://www.web2py.com/book/default/chapter/08</div></td></tr></table></div></td></tr><tr><td><div><table><tr><td><div>Eri\xc5\x9fim Denetimi</div></td></tr><tr><td><div>False</div></td></tr><tr><td><div>http://www.web2py.com/book/default/chapter/09</div></td></tr></table></div></td></tr><tr><td><div><table><tr><td><div>Hizmetler</div></td></tr><tr><td><div>False</div></td></tr><tr><td><div>http://www.web2py.com/book/default/chapter/10</div></td></tr></table></div></td></tr><tr><td><div><table><tr><td><div>Ajax Tarifleri</div></td></tr><tr><td><div>False</div></td></tr><tr><td><div>http://www.web2py.com/book/default/chapter/11</div></td></tr></table></div></td></tr><tr><td><div><table><tr><td><div>Bile\xc5\x9fenler ve Eklentiler</div></td></tr><tr><td><div>False</div></td></tr><tr><td><div>http://www.web2py.com/book/default/chapter/12</div></td></tr></table></div></td></tr><tr><td><div><table><tr><td><div>Yay\xc4\xb1nlama tarifleri</div></td></tr><tr><td><div>False</div></td></tr><tr><td><div>http://www.web2py.com/book/default/chapter/13</div></td></tr></table></div></td></tr><tr><td><div><table><tr><td><div>Di\xc4\x9fer Tarifler</div></td></tr><tr><td><div>False</div></td></tr><tr><td><div>http://www.web2py.com/book/default/chapter/14</div></td></tr></table></div></td></tr><tr><td><div><table><tr><td><div>Helping web2py</div></td></tr><tr><td><div>False</div></td></tr><tr><td><div>http://www.web2py.com/book/default/chapter/15</div></td></tr></table></div></td></tr><tr><td><div><table><tr><td><div>Buy web2py\'s book</div></td></tr><tr><td><div>False</div></td></tr><tr><td><div>http://stores.lulu.com/web2py</div></td></tr></table></div></td></tr></table></div></td></tr></table></div></td></tr><tr><td><div><table><tr><td><div>Topluluk</div></td></tr><tr><td><div>False</div></td></tr><tr><td><div>None</div></td></tr><tr><td><div><table><tr><td><div><table><tr><td><div>Gruplar</div></td></tr><tr><td><div>False</div></td></tr><tr><td><div>http://www.web2py.com/examples/default/usergroups</div></td></tr></table></div></td></tr><tr><td><div><table><tr><td><div>Twitter</div></td></tr><tr><td><div>False</div></td></tr><tr><td><div>http://twitter.com/web2py</div></td></tr></table></div></td></tr><tr><td><div><table><tr><td><div>Canl\xc4\xb1 Sohbet</div></td></tr><tr><td><div>False</div></td></tr><tr><td><div>http://webchat.freenode.net/?channels=web2py</div></td></tr></table></div></td></tr></table></div></td></tr></table></div></td></tr></table></div></td></tr><tr><td style="font-weight:bold;vertical-align:top;">meta</td><td style="vertical-align:top;">:</td><td><div><table><tr><td style="font-weight:bold;vertical-align:top;">author</td><td style="vertical-align:top;">:</td><td><div>Your Name &lt;you@example.com&gt;</div></td></tr><tr><td style="font-weight:bold;vertical-align:top;">description</td><td style="vertical-align:top;">:</td><td><div>a cool new app</div></td></tr><tr><td style="font-weight:bold;vertical-align:top;">generator</td><td style="vertical-align:top;">:</td><td><div>Web2py Web Framework</div></td></tr><tr><td style="font-weight:bold;vertical-align:top;">keywords</td><td style="vertical-align:top;">:</td><td><div><table><tr><td><div>web2py</div></td></tr><tr><td><div>python</div></td></tr><tr><td><div>framework</div></td></tr></table></div></td></tr></table></div></td></tr><tr><td style="font-weight:bold;vertical-align:top;">models_to_run</td><td style="vertical-align:top;">:</td><td><div><table><tr><td><div>^\\w+\\.py$</div></td></tr><tr><td><div>^default/\\w+\\.py$</div></td></tr><tr><td><div>^default/index/\\w+\\.py$</div></td></tr></table></div></td></tr><tr><td style="font-weight:bold;vertical-align:top;">postprocessing</td><td style="vertical-align:top;">:</td><td><div><table></table></div></td></tr><tr><td style="font-weight:bold;vertical-align:top;">session_client</td><td style="vertical-align:top;">:</td><td><div>127.0.0.1</div></td></tr><tr><td style="font-weight:bold;vertical-align:top;">session_cookie_compression_level</td><td style="vertical-align:top;">:</td><td><div>None</div></td></tr><tr><td style="font-weight:bold;vertical-align:top;">session_cookie_expires</td><td style="vertical-align:top;">:</td><td><div>None</div></td></tr><tr><td style="font-weight:bold;vertical-align:top;">session_data_name</td><td style="vertical-align:top;">:</td><td><div>session_data_paradise_hotel</div></td></tr><tr><td style="font-weight:bold;vertical-align:top;">session_file</td><td style="vertical-align:top;">:</td><td><div>&lt;open file &#x27;C:\\\\Users\\\\omerf\\\\Desktop\\\\Web\\\\web2py\\\\applications\\\\paradise_hotel\\\\sessions\\\\1de\\\\0cb\\\\127.0.0.1-8d5a3fd5-2747-47c7-a1b9-a462dec62366&#x27;, mode &#x27;rb+&#x27; at 0x081CC078&gt;</div></td></tr><tr><td style="font-weight:bold;vertical-align:top;">session_filename</td><td style="vertical-align:top;">:</td><td><div>C:\\Users\\omerf\\Desktop\\Web\\web2py\\applications\\paradise_hotel\\sessions\\127.0.0.1-8d5a3fd5-2747-47c7-a1b9-a462dec62366</div></td></tr><tr><td style="font-weight:bold;vertical-align:top;">session_hash</td><td style="vertical-align:top;">:</td><td><div>a2f52f61fb00c9a4628755e96f459558</div></td></tr><tr><td style="font-weight:bold;vertical-align:top;">session_id</td><td style="vertical-align:top;">:</td><td><div>127.0.0.1-8d5a3fd5-2747-47c7-a1b9-a462dec62366</div></td></tr><tr><td style="font-weight:bold;vertical-align:top;">session_id_name</td><td style="vertical-align:top;">:</td><td><div>session_id_paradise_hotel</div></td></tr><tr><td style="font-weight:bold;vertical-align:top;">session_locked</td><td style="vertical-align:top;">:</td><td><div>True</div></td></tr><tr><td style="font-weight:bold;vertical-align:top;">session_masterapp</td><td style="vertical-align:top;">:</td><td><div>paradise_hotel</div></td></tr><tr><td style="font-weight:bold;vertical-align:top;">session_new</td><td style="vertical-align:top;">:</td><td><div>False</div></td></tr><tr><td style="font-weight:bold;vertical-align:top;">session_storage_type</td><td style="vertical-align:top;">:</td><td><div>file</div></td></tr><tr><td style="font-weight:bold;vertical-align:top;">status</td><td style="vertical-align:top;">:</td><td><div>200</div></td></tr><tr><td style="font-weight:bold;vertical-align:top;">subtitle</td><td style="vertical-align:top;">:</td><td><div></div></td></tr><tr><td style="font-weight:bold;vertical-align:top;">title</td><td style="vertical-align:top;">:</td><td><div>Paradise Hotel</div></td></tr><tr><td style="font-weight:bold;vertical-align:top;">view</td><td style="vertical-align:top;">:</td><td><div>default/index.html</div></td></tr></table></div>'
tRp122
sS'locals'
p123
(dp124
S'Service'
p125
S"<class 'gluon.tools.Service'>"
p126
sS'OBJECT'
p127
S"<class 'gluon.html.OBJECT'>"
p128
sS'SQLDB'
p129
S"<class 'pydal.base.DAL'>"
p130
sg115
S"<Storage {'_formkey[default]': ['cff1b503-8c27-4..., 'Email_Address': 'oguz@gmail.com', 'id': 2L}>}>"
p131
sS'LINK'
p132
S"<class 'gluon.html.LINK'>"
p133
sS'BR'
p134
S"<class 'gluon.html.BR'>"
p135
sS'local_import'
p136
S'<function <lambda>>'
p137
sS'OPTGROUP'
p138
S"<class 'gluon.html.OPTGROUP'>"
p139
sS'__package__'
p140
S'None'
p141
sS'PRE'
p142
S"<class 'gluon.html.PRE'>"
p143
sS'IS_INT_IN_RANGE'
p144
S"<class 'gluon.validators.IS_INT_IN_RANGE'>"
p145
sS'IS_LOWER'
p146
S"<class 'gluon.validators.IS_LOWER'>"
p147
sS'IS_STRONG'
p148
S"<class 'gluon.validators.IS_STRONG'>"
p149
sS'cache'
p150
S'<gluon.cache.Cache object>'
p151
sS'IS_IN_DB'
p152
S"<class 'gluon.validators.IS_IN_DB'>"
p153
sS'TAG'
p154
S'<gluon.html.__TAG__ object>'
p155
sS'SQLField'
p156
S"<class 'pydal.objects.Field'>"
p157
sS'mail'
p158
S'<gluon.tools.Mail object>'
p159
sS'BODY'
p160
S"<class 'gluon.html.BODY'>"
p161
sS'IS_DATE_IN_RANGE'
p162
S"<class 'gluon.validators.IS_DATE_IN_RANGE'>"
p163
sS'IFRAME'
p164
S"<class 'gluon.html.IFRAME'>"
p165
sS'URL'
p166
S'<function URL>'
p167
sS'__file__'
p168
S"r'C:\\Users\\omerf\\Desktop\\Web\\web2py\\applications\\paradise_hotel\\views\\default/index.html'"
p169
sS'db'
p170
S'<DAL uri="sqlite://storage.sqlite">'
p171
sS'auth'
p172
S'<gluon.tools.Auth object>'
p173
sS'P'
S"<class 'gluon.html.P'>"
p174
sS'TFOOT'
p175
S"<class 'gluon.html.TFOOT'>"
p176
sS'XHTML'
p177
S"<class 'gluon.html.XHTML'>"
p178
sS'ON'
p179
S'True'
p180
sS'OL'
p181
S"<class 'gluon.html.OL'>"
p182
sS'TEXTAREA'
p183
S"<class 'gluon.html.TEXTAREA'>"
p184
sS'MENU'
p185
S"<class 'gluon.html.MENU'>"
p186
sS'IS_IMAGE'
p187
S"<class 'gluon.validators.IS_IMAGE'>"
p188
sS'EM'
p189
S"<class 'gluon.html.EM'>"
p190
sS'CODE'
p191
S"<class 'gluon.html.CODE'>"
p192
sS'HTTP'
p193
S"<class 'gluon.http.HTTP'>"
p194
sS'HR'
p195
S"<class 'gluon.html.HR'>"
p196
sS'IS_DATETIME'
p197
S"<class 'gluon.validators.IS_DATETIME'>"
p198
sS'STYLE'
p199
S"<class 'gluon.html.STYLE'>"
p200
sS'LABEL'
p201
S"<class 'gluon.html.LABEL'>"
p202
sS'CLEANUP'
p203
S"<class 'gluon.validators.CLEANUP'>"
p204
sS'plugins'
p205
S'<gluon.tools.PluginManager object>'
p206
sS'SELECT'
p207
S"<class 'gluon.html.SELECT'>"
p208
sS'CENTER'
p209
S"<class 'gluon.html.CENTER'>"
p210
sS'Auth'
p211
S"<class 'gluon.tools.Auth'>"
p212
sS'DEVELOPMENT_MENU'
p213
g180
sS'__builtins__'
p214
S"{'ArithmeticError': <type 'exceptions.ArithmeticError'>, 'AssertionError': <type 'exceptions.AssertionError'>, 'AttributeError': <type 'exceptions.AttributeError'>, 'BaseException': <type 'exceptions.BaseException'>, 'BufferError': <type 'exceptions.BufferError'>, 'BytesWarning': <type 'exceptions.BytesWarning'>, 'DeprecationWarning': <type 'exceptions.DeprecationWarning'>, 'EOFError': <type 'exceptions.EOFError'>, 'Ellipsis': Ellipsis, 'EnvironmentError': <type 'exceptions.EnvironmentError'>, ...}"
p215
sS'HTML'
p216
S"<class 'gluon.html.HTML'>"
p217
sS'SQLFORM'
p218
S"<class 'gluon.sqlhtml.SQLFORM'>"
p219
sS'LOAD'
p220
S'<function LOAD>'
p221
sS'redirect'
p222
S'<function redirect>'
p223
sS'FIELDSET'
p224
S"<class 'gluon.html.FIELDSET'>"
p225
sS'IS_EQUAL_TO'
p226
S"<class 'gluon.validators.IS_EQUAL_TO'>"
p227
sS'embed64'
p228
S'<function embed64>'
p229
sS'IS_LIST_OF'
p230
S"<class 'gluon.validators.IS_LIST_OF'>"
p231
sS'INPUT'
p232
S"<class 'gluon.html.INPUT'>"
p233
sS'EMBED'
p234
S"<class 'gluon.html.EMBED'>"
p235
sS'_'
S'<function _>'
p236
sS'myconf'
p237
S"{'forms': {'formstyle': 'bootstrap3_inline', 'se...': {'names': 'localhost:*, 127.0.0.1:*, *:*, *'}}"
p238
sS'H2'
p239
S"<class 'gluon.html.H2'>"
p240
sS'H3'
p241
S"<class 'gluon.html.H3'>"
p242
sS'AppConfig'
p243
S'<function AppConfig>'
p244
sS'H1'
p245
S"<class 'gluon.html.H1'>"
p246
sS'H6'
p247
S"<class 'gluon.html.H6'>"
p248
sS'H4'
p249
S"<class 'gluon.html.H4'>"
p250
sS'H5'
p251
S"<class 'gluon.html.H5'>"
p252
sS'UL'
p253
S"<class 'gluon.html.UL'>"
p254
sS'IS_UPPER'
p255
S"<class 'gluon.validators.IS_UPPER'>"
p256
sS'xmlescape'
p257
S'<function xmlescape>'
p258
sS'IS_TIME'
p259
S"<class 'gluon.validators.IS_TIME'>"
p260
sS'OPTION'
p261
S"<class 'gluon.html.OPTION'>"
p262
sS'TITLE'
p263
S"<class 'gluon.html.TITLE'>"
p264
sS'CRYPT'
p265
S"<class 'gluon.validators.CRYPT'>"
p266
sS'IS_EMPTY_OR'
p267
S"<class 'gluon.validators.IS_EMPTY_OR'>"
p268
sS'MARKMIN'
p269
S"<class 'gluon.html.MARKMIN'>"
p270
sS'__name__'
p271
S"'__restricted__'"
p272
sS'IS_DATE'
p273
S"<class 'gluon.validators.IS_DATE'>"
p274
sS'STRONG'
p275
S"<class 'gluon.html.STRONG'>"
p276
sS'COL'
p277
S"<class 'gluon.html.COL'>"
p278
sS'service'
p279
S'<gluon.tools.Service object>'
p280
sS'SCRIPT'
p281
S"<class 'gluon.html.SCRIPT'>"
p282
sS'TABLE'
p283
S"<class 'gluon.html.TABLE'>"
p284
sS'IS_IPV4'
p285
S"<class 'gluon.validators.IS_IPV4'>"
p286
sS'IS_LENGTH'
p287
S"<class 'gluon.validators.IS_LENGTH'>"
p288
sS'IS_IPV6'
p289
S"<class 'gluon.validators.IS_IPV6'>"
p290
sS'XML'
p291
S"<class 'gluon.html.XML'>"
p292
sS'B'
S"<class 'gluon.html.B'>"
p293
sS'IMG'
p294
S"<class 'gluon.html.IMG'>"
p295
sS'SQLTABLE'
p296
S"<class 'gluon.sqlhtml.SQLTABLE'>"
p297
sS'IS_MATCH'
p298
S"<class 'gluon.validators.IS_MATCH'>"
p299
sS'IS_ALPHANUMERIC'
p300
S"<class 'gluon.validators.IS_ALPHANUMERIC'>"
p301
sS'SPAN'
p302
S"<class 'gluon.html.SPAN'>"
p303
sS'IS_JSON'
p304
S"<class 'gluon.validators.IS_JSON'>"
p305
sS'IS_IPADDRESS'
p306
S"<class 'gluon.validators.IS_IPADDRESS'>"
p307
sS'IS_SLUG'
p308
S"<class 'gluon.validators.IS_SLUG'>"
p309
sS'BEAUTIFY'
p310
S"<class 'gluon.html.BEAUTIFY'>"
p311
sS'META'
p312
S"<class 'gluon.html.META'>"
p313
sS'BUTTON'
p314
S"<class 'gluon.html.BUTTON'>"
p315
sS'page_title'
p316
S"'Home Page'"
p317
sS'IS_EMAIL'
p318
S"<class 'gluon.validators.IS_EMAIL'>"
p319
sS'IS_NOT_EMPTY'
p320
S"<class 'gluon.validators.IS_NOT_EMPTY'>"
p321
sS'IS_FLOAT_IN_RANGE'
p322
S"<class 'gluon.validators.IS_FLOAT_IN_RANGE'>"
p323
sS'TBODY'
p324
S"<class 'gluon.html.TBODY'>"
p325
sS'CAT'
p326
S"<class 'gluon.html.CAT'>"
p327
sS'Field'
p328
S"<class 'pydal.objects.Field'>"
p329
sS'IS_LIST_OF_EMAILS'
p330
S"<class 'gluon.validators.IS_LIST_OF_EMAILS'>"
p331
sS'DIV'
p332
S"<class 'gluon.html.DIV'>"
p333
sS'LEGEND'
p334
S"<class 'gluon.html.LEGEND'>"
p335
sS'menu_items'
p336
S'<function menu_items>'
p337
sS'COLGROUP'
p338
S"<class 'gluon.html.COLGROUP'>"
p339
sS'DAL'
p340
S"<class 'pydal.base.DAL'>"
p341
sS'ASSIGNJS'
p342
S'<function ASSIGNJS>'
p343
sS'TR'
p344
S"<class 'gluon.html.TR'>"
p345
sS'LI'
p346
S"<class 'gluon.html.LI'>"
p347
sS'TH'
p348
S"<class 'gluon.html.TH'>"
p349
sS'TD'
p350
S"<class 'gluon.html.TD'>"
p351
sS'PluginManager'
p352
S"<class 'gluon.tools.PluginManager'>"
p353
sS'IS_URL'
p354
S"<class 'gluon.validators.IS_URL'>"
p355
sS'A'
S"<class 'gluon.html.A'>"
p356
sS'HEAD'
p357
S"<class 'gluon.html.HEAD'>"
p358
sS'IS_DATETIME_IN_RANGE'
p359
S"<class 'gluon.validators.IS_DATETIME_IN_RANGE'>"
p360
sS'FORM'
p361
S"<class 'gluon.html.FORM'>"
p362
sS'I'
S"<class 'gluon.html.I'>"
p363
sS'IS_NOT_IN_DB'
p364
S"<class 'gluon.validators.IS_NOT_IN_DB'>"
p365
sg121
S"<Storage {'body': <cStringIO.StringO object at 0...a> at 0x082F84B0>, 'view': 'default/index.html'}>"
p366
sS'THEAD'
p367
S"<class 'gluon.html.THEAD'>"
p368
sS'ANY_OF'
p369
S"<class 'gluon.validators.ANY_OF'>"
p370
sS'IS_NULL_OR'
p371
S"<class 'gluon.validators.IS_EMPTY_OR'>"
p372
sg56
S"<Storage {'_vars': None, 'function': 'index', 'c...p\\\\Web\\\\web2py\\\\applications\\\\paradise_hotel\\\\'}>"
p373
sS'IS_EXPR'
p374
S"<class 'gluon.validators.IS_EXPR'>"
p375
sS'T'
S'<gluon.languages.translator object>'
p376
sS'IS_IN_SET'
p377
S"<class 'gluon.validators.IS_IN_SET'>"
p378
sS'IS_UPLOAD_FILENAME'
p379
S"<class 'gluon.validators.IS_UPLOAD_FILENAME'>"
p380
sS'title'
p381
S"''"
p382
sS'TT'
p383
S"<class 'gluon.html.TT'>"
p384
sS'IS_DECIMAL_IN_RANGE'
p385
S"<class 'gluon.validators.IS_DECIMAL_IN_RANGE'>"
p386
sssS'traceback'
p387
S'Traceback (most recent call last):\n  File "C:\\Users\\omerf\\Desktop\\Web\\web2py\\gluon\\restricted.py", line 227, in restricted\n    exec ccode in environment\n  File "C:\\Users\\omerf\\Desktop\\Web\\web2py\\applications\\paradise_hotel\\views\\default/index.html", line 26, in <module>\nNameError: name \'user\' is not defined\n'
p388
s.